
VolgDeMuurM32.elf:     file format elf32-avr

Sections:
Idx Name          Size      VMA       LMA       File off  Algn
  0 .text         00002c1a  00000000  00000000  00000094  2**1
                  CONTENTS, ALLOC, LOAD, READONLY, CODE
  1 .data         0000002a  00800060  00002c1a  00002cae  2**0
                  CONTENTS, ALLOC, LOAD, DATA
  2 .bss          0000012e  0080008a  0080008a  00002cd8  2**0
                  ALLOC
  3 .debug_aranges 00000120  00000000  00000000  00002cd8  2**0
                  CONTENTS, READONLY, DEBUGGING
  4 .debug_pubnames 00000b4b  00000000  00000000  00002df8  2**0
                  CONTENTS, READONLY, DEBUGGING
  5 .debug_info   00003423  00000000  00000000  00003943  2**0
                  CONTENTS, READONLY, DEBUGGING
  6 .debug_abbrev 00000d29  00000000  00000000  00006d66  2**0
                  CONTENTS, READONLY, DEBUGGING
  7 .debug_line   0000233c  00000000  00000000  00007a8f  2**0
                  CONTENTS, READONLY, DEBUGGING
  8 .debug_frame  00000730  00000000  00000000  00009dcc  2**2
                  CONTENTS, READONLY, DEBUGGING
  9 .debug_str    00000ed0  00000000  00000000  0000a4fc  2**0
                  CONTENTS, READONLY, DEBUGGING
 10 .debug_loc    000010d2  00000000  00000000  0000b3cc  2**0
                  CONTENTS, READONLY, DEBUGGING
 11 .debug_ranges 00000048  00000000  00000000  0000c49e  2**0
                  CONTENTS, READONLY, DEBUGGING

Disassembly of section .text:

00000000 <__vectors>:
       0:	0c 94 24 05 	jmp	0xa48	; 0xa48 <__ctors_end>
       4:	0c 94 0e 06 	jmp	0xc1c	; 0xc1c <__vector_1>
       8:	0c 94 3b 06 	jmp	0xc76	; 0xc76 <__vector_2>
       c:	0c 94 68 06 	jmp	0xcd0	; 0xcd0 <__vector_3>
      10:	0c 94 41 05 	jmp	0xa82	; 0xa82 <__bad_interrupt>
      14:	0c 94 41 05 	jmp	0xa82	; 0xa82 <__bad_interrupt>
      18:	0c 94 41 05 	jmp	0xa82	; 0xa82 <__bad_interrupt>
      1c:	0c 94 41 05 	jmp	0xa82	; 0xa82 <__bad_interrupt>
      20:	0c 94 41 05 	jmp	0xa82	; 0xa82 <__bad_interrupt>
      24:	0c 94 41 05 	jmp	0xa82	; 0xa82 <__bad_interrupt>
      28:	0c 94 0d 09 	jmp	0x121a	; 0x121a <__vector_10>
      2c:	0c 94 41 05 	jmp	0xa82	; 0xa82 <__bad_interrupt>
      30:	0c 94 41 05 	jmp	0xa82	; 0xa82 <__bad_interrupt>
      34:	0c 94 9a 0a 	jmp	0x1534	; 0x1534 <__vector_13>
      38:	0c 94 41 05 	jmp	0xa82	; 0xa82 <__bad_interrupt>
      3c:	0c 94 41 05 	jmp	0xa82	; 0xa82 <__bad_interrupt>
      40:	0c 94 41 05 	jmp	0xa82	; 0xa82 <__bad_interrupt>
      44:	0c 94 41 05 	jmp	0xa82	; 0xa82 <__bad_interrupt>
      48:	0c 94 41 05 	jmp	0xa82	; 0xa82 <__bad_interrupt>
      4c:	0c 94 4c 0e 	jmp	0x1c98	; 0x1c98 <__vector_19>
      50:	0c 94 41 05 	jmp	0xa82	; 0xa82 <__bad_interrupt>

00000054 <__c.1929>:
      54:	20 7c 20 00                                          | .

00000058 <__c.1926>:
      58:	0a 52 45 41 44 49 4e 47 20 41 4c 4c 20 52 50 36     .READING ALL RP6
      68:	20 52 45 47 49 53 54 45 52 53 3a 00                  REGISTERS:.

00000074 <__c.1919>:
      74:	0a 41 6c 6c 20 6f 6b 65 0a 00                       .All oke..

0000007e <__c.1916>:
      7e:	0a 49 32 43 20 45 52 52 4f 52 20 2d 20 30 78 30     .I2C ERROR - 0x0
      8e:	30 20 42 75 73 20 65 72 72 6f 72 20 64 75 65 20     0 Bus error due 
      9e:	74 6f 20 61 6e 20 69 6c 6c 65 67 61 6c 20 53 54     to an illegal ST
      ae:	41 52 54 20 6f 72 20 53 54 4f 50 20 63 6f 6e 64     ART or STOP cond
      be:	69 74 69 6f 6e 0a 00                                ition..

000000c5 <__c.1913>:
      c5:	0a 49 32 43 20 45 52 52 4f 52 20 2d 20 30 78 46     .I2C ERROR - 0xF
      d5:	38 20 4e 6f 20 72 65 6c 65 76 61 6e 74 20 73 74     8 No relevant st
      e5:	61 74 65 20 69 6e 66 6f 72 6d 61 74 69 6f 6e 20     ate information 
      f5:	61 76 61 69 6c 61 62 6c 65 3b 20 54 57 49 4e 54     available; TWINT
     105:	20 3d 20 93 30 94 0a 00                              = .0...

0000010d <__c.1910>:
     10d:	0a 49 32 43 20 45 52 52 4f 52 20 2d 20 30 78 41     .I2C ERROR - 0xA
     11d:	30 20 41 20 53 54 4f 50 20 63 6f 6e 64 69 74 69     0 A STOP conditi
     12d:	6f 6e 20 6f 72 20 72 65 70 65 61 74 65 64 20 53     on or repeated S
     13d:	54 41 52 54 20 63 6f 6e 64 69 74 69 6f 6e 20 68     TART condition h
     14d:	61 73 20 62 65 65 6e 20 72 65 63 65 69 76 65 64     as been received
     15d:	20 77 68 69 6c 65 20 73 74 69 6c 6c 20 61 64 64      while still add
     16d:	72 65 73 73 65 64 20 61 73 20 53 6c 61 76 65 0a     ressed as Slave.
	...

0000017e <__c.1907>:
     17e:	0a 49 32 43 20 45 52 52 4f 52 20 2d 20 30 78 39     .I2C ERROR - 0x9
     18e:	38 20 50 72 65 76 69 6f 75 73 6c 79 20 61 64 64     8 Previously add
     19e:	72 65 73 73 65 64 20 77 69 74 68 20 67 65 6e 65     ressed with gene
     1ae:	72 61 6c 20 63 61 6c 6c 3b 20 64 61 74 61 20 68     ral call; data h
     1be:	61 73 20 62 65 65 6e 20 72 65 63 65 69 76 65 64     as been received
     1ce:	3b 20 4e 4f 54 20 41 43 4b 20 68 61 73 20 62 65     ; NOT ACK has be
     1de:	65 6e 20 72 65 74 75 72 6e 65 64 0a 00              en returned..

000001eb <__c.1904>:
     1eb:	0a 49 32 43 20 45 52 52 4f 52 20 2d 20 30 78 39     .I2C ERROR - 0x9
     1fb:	30 20 50 72 65 76 69 6f 75 73 6c 79 20 61 64 64     0 Previously add
     20b:	72 65 73 73 65 64 20 77 69 74 68 20 67 65 6e 65     ressed with gene
     21b:	72 61 6c 20 63 61 6c 6c 3b 20 64 61 74 61 20 68     ral call; data h
     22b:	61 73 20 62 65 65 6e 20 72 65 63 65 69 76 65 64     as been received
     23b:	3b 20 41 43 4b 20 68 61 73 20 62 65 65 6e 20 72     ; ACK has been r
     24b:	65 74 75 72 6e 65 64 0a 00                          eturned..

00000254 <__c.1901>:
     254:	0a 49 32 43 20 45 52 52 4f 52 20 2d 20 30 78 38     .I2C ERROR - 0x8
     264:	38 20 50 72 65 76 69 6f 75 73 6c 79 20 61 64 64     8 Previously add
     274:	72 65 73 73 65 64 20 77 69 74 68 20 6f 77 6e 20     ressed with own 
     284:	53 4c 41 2b 57 3b 20 64 61 74 61 20 68 61 73 20     SLA+W; data has 
     294:	62 65 65 6e 20 72 65 63 65 69 76 65 64 3b 20 4e     been received; N
     2a4:	4f 54 20 41 43 4b 20 68 61 73 20 62 65 65 6e 20     OT ACK has been 
     2b4:	72 65 74 75 72 6e 65 64 0a 00                       returned..

000002be <__c.1898>:
     2be:	0a 49 32 43 20 45 52 52 4f 52 20 2d 20 30 78 38     .I2C ERROR - 0x8
     2ce:	30 20 50 72 65 76 69 6f 75 73 6c 79 20 61 64 64     0 Previously add
     2de:	72 65 73 73 65 64 20 77 69 74 68 20 6f 77 6e 20     ressed with own 
     2ee:	53 4c 41 2b 57 3b 20 64 61 74 61 20 68 61 73 20     SLA+W; data has 
     2fe:	62 65 65 6e 20 72 65 63 65 69 76 65 64 3b 20 41     been received; A
     30e:	43 4b 20 68 61 73 20 62 65 65 6e 20 72 65 74 75     CK has been retu
     31e:	72 6e 65 64 0a 00                                   rned..

00000324 <__c.1895>:
     324:	0a 49 32 43 20 45 52 52 4f 52 20 2d 20 30 78 37     .I2C ERROR - 0x7
     334:	38 20 41 72 62 69 74 72 61 74 69 6f 6e 20 6c 6f     8 Arbitration lo
     344:	73 74 20 69 6e 20 53 4c 41 2b 52 2f 57 20 61 73     st in SLA+R/W as
     354:	20 4d 61 73 74 65 72 3b 20 47 65 6e 65 72 61 6c      Master; General
     364:	20 63 61 6c 6c 20 61 64 64 72 65 73 73 20 68 61      call address ha
     374:	73 20 62 65 65 6e 20 72 65 63 65 69 76 65 64 3b     s been received;
     384:	20 41 43 4b 20 68 61 73 20 62 65 65 6e 20 72 65      ACK has been re
     394:	74 75 72 6e 65 64 0a 00                             turned..

0000039c <__c.1892>:
     39c:	0a 49 32 43 20 45 52 52 4f 52 20 2d 20 30 78 37     .I2C ERROR - 0x7
     3ac:	30 20 47 65 6e 65 72 61 6c 20 63 61 6c 6c 20 61     0 General call a
     3bc:	64 64 72 65 73 73 20 68 61 73 20 62 65 65 6e 20     ddress has been 
     3cc:	72 65 63 65 69 76 65 64 3b 20 41 43 4b 20 68 61     received; ACK ha
     3dc:	73 20 62 65 65 6e 20 72 65 74 75 72 6e 65 64 0a     s been returned.
	...

000003ed <__c.1889>:
     3ed:	0a 49 32 43 20 45 52 52 4f 52 20 2d 20 30 78 36     .I2C ERROR - 0x6
     3fd:	38 20 41 72 62 69 74 72 61 74 69 6f 6e 20 6c 6f     8 Arbitration lo
     40d:	73 74 20 69 6e 20 53 4c 41 2b 52 2f 57 20 61 73     st in SLA+R/W as
     41d:	20 4d 61 73 74 65 72 3b 20 6f 77 6e 20 53 4c 41      Master; own SLA
     42d:	2b 57 20 68 61 73 20 62 65 65 6e 20 72 65 63 65     +W has been rece
     43d:	69 76 65 64 3b 20 41 43 4b 20 68 61 73 20 62 65     ived; ACK has be
     44d:	65 6e 20 72 65 74 75 72 6e 65 64 0a 00              en returned..

0000045a <__c.1886>:
     45a:	0a 49 32 43 20 45 52 52 4f 52 20 2d 20 30 78 36     .I2C ERROR - 0x6
     46a:	30 20 4f 77 6e 20 53 4c 41 2b 57 20 68 61 73 20     0 Own SLA+W has 
     47a:	62 65 65 6e 20 72 65 63 65 69 76 65 64 20 41 43     been received AC
     48a:	4b 20 68 61 73 20 62 65 65 6e 20 72 65 74 75 72     K has been retur
     49a:	6e 65 64 0a 00                                      ned..

0000049f <__c.1883>:
     49f:	0a 49 32 43 20 45 52 52 4f 52 20 2d 20 30 78 43     .I2C ERROR - 0xC
     4af:	38 20 4c 61 73 74 20 64 61 74 61 20 62 79 74 65     8 Last data byte
     4bf:	20 69 6e 20 54 57 44 52 20 68 61 73 20 62 65 65      in TWDR has bee
     4cf:	6e 20 74 72 61 6e 73 6d 69 74 74 65 64 20 28 54     n transmitted (T
     4df:	57 45 41 20 3d 20 93 30 94 29 3b 20 41 43 4b 20     WEA = .0.); ACK 
     4ef:	68 61 73 20 62 65 65 6e 20 72 65 63 65 69 76 65     has been receive
     4ff:	64 0a 00                                            d..

00000502 <__c.1880>:
     502:	0a 49 32 43 20 45 52 52 4f 52 20 2d 20 30 78 43     .I2C ERROR - 0xC
     512:	30 20 44 61 74 61 20 62 79 74 65 20 69 6e 20 54     0 Data byte in T
     522:	57 44 52 20 68 61 73 20 62 65 65 6e 20 74 72 61     WDR has been tra
     532:	6e 73 6d 69 74 74 65 64 3b 20 4e 4f 54 20 41 43     nsmitted; NOT AC
     542:	4b 20 68 61 73 20 62 65 65 6e 20 72 65 63 65 69     K has been recei
     552:	76 65 64 0a 00                                      ved..

00000557 <__c.1877>:
     557:	0a 49 32 43 20 45 52 52 4f 52 20 2d 20 30 78 42     .I2C ERROR - 0xB
     567:	38 20 44 61 74 61 20 62 79 74 65 20 69 6e 20 54     8 Data byte in T
     577:	57 44 52 20 68 61 73 20 62 65 65 6e 20 74 72 61     WDR has been tra
     587:	6e 73 6d 69 74 74 65 64 3b 20 41 43 4b 20 68 61     nsmitted; ACK ha
     597:	73 20 62 65 65 6e 20 72 65 63 65 69 76 65 64 0a     s been received.
	...

000005a8 <__c.1874>:
     5a8:	0a 49 32 43 20 45 52 52 4f 52 20 2d 20 30 78 42     .I2C ERROR - 0xB
     5b8:	30 20 41 72 62 69 74 72 61 74 69 6f 6e 20 6c 6f     0 Arbitration lo
     5c8:	73 74 20 69 6e 20 53 4c 41 2b 52 2f 57 20 61 73     st in SLA+R/W as
     5d8:	20 4d 61 73 74 65 72 3b 20 6f 77 6e 20 53 4c 41      Master; own SLA
     5e8:	2b 52 20 68 61 73 20 62 65 65 6e 20 72 65 63 65     +R has been rece
     5f8:	69 76 65 64 3b 20 41 43 4b 20 68 61 73 20 62 65     ived; ACK has be
     608:	65 6e 20 72 65 74 75 72 6e 65 64 0a 00              en returned..

00000615 <__c.1871>:
     615:	0a 49 32 43 20 45 52 52 4f 52 20 2d 20 30 78 41     .I2C ERROR - 0xA
     625:	38 20 4f 77 6e 20 53 4c 41 2b 52 20 68 61 73 20     8 Own SLA+R has 
     635:	62 65 65 6e 20 72 65 63 65 69 76 65 64 3b 20 41     been received; A
     645:	43 4b 20 68 61 73 20 62 65 65 6e 20 72 65 74 75     CK has been retu
     655:	72 6e 65 64 0a 00                                   rned..

0000065b <__c.1868>:
     65b:	0a 49 32 43 20 45 52 52 4f 52 20 2d 20 30 78 35     .I2C ERROR - 0x5
     66b:	38 20 44 61 74 61 20 62 79 74 65 20 68 61 73 20     8 Data byte has 
     67b:	62 65 65 6e 20 72 65 63 65 69 76 65 64 20 61 6e     been received an
     68b:	64 20 4e 41 43 4b 20 74 72 61 6e 73 6d 69 74 74     d NACK transmitt
     69b:	65 64 0a 00                                         ed..

0000069f <__c.1865>:
     69f:	0a 49 32 43 20 45 52 52 4f 52 20 2d 20 30 78 35     .I2C ERROR - 0x5
     6af:	30 20 44 61 74 61 20 62 79 74 65 20 68 61 73 20     0 Data byte has 
     6bf:	62 65 65 6e 20 72 65 63 65 69 76 65 64 20 61 6e     been received an
     6cf:	64 20 41 43 4b 20 74 72 61 6e 73 6d 69 74 74 65     d ACK transmitte
     6df:	64 0a 00                                            d..

000006e2 <__c.1862>:
     6e2:	0a 49 32 43 20 45 52 52 4f 52 20 2d 20 30 78 34     .I2C ERROR - 0x4
     6f2:	38 20 53 4c 41 2b 52 20 68 61 73 20 62 65 65 6e     8 SLA+R has been
     702:	20 74 72 61 6e 73 6d 69 74 74 65 64 20 61 6e 64      transmitted and
     712:	20 4e 41 43 4b 20 72 65 63 65 69 76 65 64 0a 00      NACK received..

00000722 <__c.1859>:
     722:	0a 49 32 43 20 45 52 52 4f 52 20 2d 20 30 78 34     .I2C ERROR - 0x4
     732:	30 20 53 4c 41 2b 52 20 68 61 73 20 62 65 65 6e     0 SLA+R has been
     742:	20 74 72 61 6e 73 6d 69 74 74 65 64 20 61 6e 64      transmitted and
     752:	20 41 43 4b 20 72 65 63 65 69 76 65 64 0a 00         ACK received..

00000761 <__c.1856>:
     761:	0a 49 32 43 20 45 52 52 4f 52 20 2d 20 30 78 33     .I2C ERROR - 0x3
     771:	30 20 44 61 74 61 20 62 79 74 65 20 68 61 73 20     0 Data byte has 
     781:	62 65 65 6e 20 74 72 61 6e 73 6d 69 74 74 65 64     been transmitted
     791:	20 61 6e 64 20 4e 41 43 4b 20 72 65 63 65 69 76      and NACK receiv
     7a1:	65 64 0a 00                                         ed..

000007a5 <__c.1853>:
     7a5:	0a 49 32 43 20 45 52 52 4f 52 20 2d 20 30 78 32     .I2C ERROR - 0x2
     7b5:	38 20 44 61 74 61 20 62 79 74 65 20 68 61 73 20     8 Data byte has 
     7c5:	62 65 65 6e 20 74 72 61 6e 73 6d 69 74 74 65 64     been transmitted
     7d5:	20 61 6e 64 20 41 43 4b 20 72 65 63 65 69 76 65      and ACK receive
     7e5:	64 0a 00                                            d..

000007e8 <__c.1850>:
     7e8:	0a 49 32 43 20 45 52 52 4f 52 20 2d 20 30 78 31     .I2C ERROR - 0x1
     7f8:	38 20 53 4c 41 2b 57 20 68 61 73 20 62 65 65 6e     8 SLA+W has been
     808:	20 74 72 61 6e 73 6d 69 74 74 65 64 20 61 6e 64      transmitted and
     818:	20 41 43 4b 20 72 65 63 65 69 76 65 64 0a 00         ACK received..

00000827 <__c.1847>:
     827:	0a 49 32 43 20 45 52 52 4f 52 20 2d 20 30 78 32     .I2C ERROR - 0x2
     837:	30 20 53 4c 41 2b 57 20 68 61 73 20 62 65 65 6e     0 SLA+W has been
     847:	20 74 72 61 6e 73 6d 69 74 74 65 64 20 61 6e 64      transmitted and
     857:	20 4e 41 43 4b 20 72 65 63 65 69 76 65 64 0a 00      NACK received..

00000867 <__c.1844>:
     867:	0a 49 32 43 20 45 52 52 4f 52 20 2d 20 30 78 33     .I2C ERROR - 0x3
     877:	38 20 41 72 62 69 74 72 61 74 69 6f 6e 20 6c 6f     8 Arbitration lo
     887:	73 74 0a 00                                         st..

0000088b <__c.1841>:
     88b:	0a 49 32 43 20 45 52 52 4f 52 20 2d 20 30 78 31     .I2C ERROR - 0x1
     89b:	30 20 52 65 70 65 61 74 65 64 20 53 54 41 52 54     0 Repeated START
     8ab:	20 68 61 73 20 62 65 65 6e 20 74 72 61 6e 73 6d      has been transm
     8bb:	69 74 74 65 64 0a 00                                itted..

000008c2 <__c.1837>:
     8c2:	0a 49 32 43 20 45 52 52 4f 52 20 2d 20 30 78 30     .I2C ERROR - 0x0
     8d2:	38 20 53 54 41 52 54 20 68 61 73 20 62 65 65 6e     8 START has been
     8e2:	20 74 72 61 6e 73 6d 69 74 74 65 64 0a 00            transmitted..

000008f0 <__c.1982>:
     8f0:	52 00                                               R.

000008f2 <__c.1980>:
     8f2:	50 00                                               P.

000008f4 <__c.1978>:
     8f4:	42 3d 00                                            B=.

000008f7 <__c.1951>:
     8f7:	0a 00                                               ..

000008f9 <__c.1949>:
     8f9:	43 6f 6d 70 61 73 73 20 41 63 63 65 6c 65 72 6f     Compass Accelero
     909:	6d 65 74 65 72 20 5a 20 09 3d 20 00                 meter Z .= .

00000915 <__c.1947>:
     915:	0a 00                                               ..

00000917 <__c.1945>:
     917:	43 6f 6d 70 61 73 73 20 41 63 63 65 6c 65 72 6f     Compass Accelero
     927:	6d 65 74 65 72 20 59 20 09 3d 20 00                 meter Y .= .

00000933 <__c.1943>:
     933:	0a 00                                               ..

00000935 <__c.1941>:
     935:	43 6f 6d 70 61 73 73 20 41 63 63 65 6c 65 72 6f     Compass Accelero
     945:	6d 65 74 65 72 20 58 20 09 3d 20 00                 meter X .= .

00000951 <__c.1939>:
     951:	0a 00                                               ..

00000953 <__c.1937>:
     953:	43 6f 6d 70 61 73 73 20 4d 61 67 6e 65 74 6f 6d     Compass Magnetom
     963:	65 74 65 72 20 5a 20 09 3d 20 00                    eter Z .= .

0000096e <__c.1935>:
     96e:	0a 00                                               ..

00000970 <__c.1933>:
     970:	43 6f 6d 70 61 73 73 20 4d 61 67 6e 65 74 6f 6d     Compass Magnetom
     980:	65 74 65 72 20 59 20 09 3d 20 00                    eter Y .= .

0000098b <__c.1931>:
     98b:	0a 00                                               ..

0000098d <__c.1929>:
     98d:	43 6f 6d 70 61 73 73 20 4d 61 67 6e 65 74 6f 6d     Compass Magnetom
     99d:	65 74 65 72 20 58 20 09 3d 20 00                    eter X .= .

000009a8 <__c.1927>:
     9a8:	0a 00                                               ..

000009aa <__c.1925>:
     9aa:	43 6f 6d 70 61 73 73 20 52 6f 6c 6c 20 09 09 09     Compass Roll ...
     9ba:	3d 20 00                                            = .

000009bd <__c.1923>:
     9bd:	0a 00                                               ..

000009bf <__c.1921>:
     9bf:	43 6f 6d 70 61 73 73 20 50 69 74 63 68 09 09 09     Compass Pitch...
     9cf:	3d 20 00                                            = .

000009d2 <__c.1919>:
     9d2:	0a 00                                               ..

000009d4 <__c.1917>:
     9d4:	43 6f 6d 70 61 73 73 20 42 65 61 72 69 6e 67 20     Compass Bearing 
     9e4:	20 20 20 20 20 20 20 20 20 3d 20 00                          = .

000009f0 <__c.1915>:
     9f0:	0a 00                                               ..

000009f2 <__c.1913>:
     9f2:	43 6f 6d 70 61 73 73 20 42 65 61 72 69 6e 67 20     Compass Bearing 
     a02:	42 79 74 65 20 20 20 20 20 3d 20 00                 Byte     = .

00000a0e <__c.1911>:
     a0e:	0a 00                                               ..

00000a10 <__c.1909>:
     a10:	43 6f 6d 70 61 73 73 20 53 6f 66 74 77 61 72 65     Compass Software
     a20:	20 56 65 72 73 69 6f 6e 20 3d 20 00                  Version = .

00000a2c <__c.1907>:
     a2c:	0c 00                                               ..

00000a2e <__c.1862>:
     a2e:	0a 00                                               ..

00000a30 <__c.1860>:
     a30:	0a 00                                               ..

00000a32 <__c.1858>:
     a32:	44 65 20 64 61 74 61 20 76 61 6e 20 64 65 20 6b     De data van de k
     a42:	6c 6f 6b 0a 00 00                                   lok...

00000a48 <__ctors_end>:
     a48:	11 24       	eor	r1, r1
     a4a:	1f be       	out	0x3f, r1	; 63
     a4c:	cf e5       	ldi	r28, 0x5F	; 95
     a4e:	d8 e0       	ldi	r29, 0x08	; 8
     a50:	de bf       	out	0x3e, r29	; 62
     a52:	cd bf       	out	0x3d, r28	; 61

00000a54 <__do_copy_data>:
     a54:	10 e0       	ldi	r17, 0x00	; 0
     a56:	a0 e6       	ldi	r26, 0x60	; 96
     a58:	b0 e0       	ldi	r27, 0x00	; 0
     a5a:	ea e1       	ldi	r30, 0x1A	; 26
     a5c:	fc e2       	ldi	r31, 0x2C	; 44
     a5e:	02 c0       	rjmp	.+4      	; 0xa64 <.do_copy_data_start>

00000a60 <.do_copy_data_loop>:
     a60:	05 90       	lpm	r0, Z+
     a62:	0d 92       	st	X+, r0

00000a64 <.do_copy_data_start>:
     a64:	aa 38       	cpi	r26, 0x8A	; 138
     a66:	b1 07       	cpc	r27, r17
     a68:	d9 f7       	brne	.-10     	; 0xa60 <.do_copy_data_loop>

00000a6a <__do_clear_bss>:
     a6a:	11 e0       	ldi	r17, 0x01	; 1
     a6c:	aa e8       	ldi	r26, 0x8A	; 138
     a6e:	b0 e0       	ldi	r27, 0x00	; 0
     a70:	01 c0       	rjmp	.+2      	; 0xa74 <.do_clear_bss_start>

00000a72 <.do_clear_bss_loop>:
     a72:	1d 92       	st	X+, r1

00000a74 <.do_clear_bss_start>:
     a74:	a8 3b       	cpi	r26, 0xB8	; 184
     a76:	b1 07       	cpc	r27, r17
     a78:	e1 f7       	brne	.-8      	; 0xa72 <.do_clear_bss_loop>
     a7a:	0e 94 5e 05 	call	0xabc	; 0xabc <main>
     a7e:	0c 94 0b 16 	jmp	0x2c16	; 0x2c16 <_exit>

00000a82 <__bad_interrupt>:
     a82:	0c 94 00 00 	jmp	0	; 0x0 <__vectors>

00000a86 <taskFrontSensors>:

void taskFrontSensors(void);

void taskFrontSensors(void)
{
    if (getStopwatch2() > 1000)
     a86:	80 91 59 01 	lds	r24, 0x0159
     a8a:	90 91 5a 01 	lds	r25, 0x015A
     a8e:	89 5e       	subi	r24, 0xE9	; 233
     a90:	93 40       	sbci	r25, 0x03	; 3
     a92:	98 f0       	brcs	.+38     	; 0xaba <taskFrontSensors+0x34>
    {
        //ReadCompass(&compassModule); // module is kapot
        getSharpSensorInfo(&sharpSensor);
     a94:	80 e0       	ldi	r24, 0x00	; 0
     a96:	91 e0       	ldi	r25, 0x01	; 1
     a98:	0e 94 96 0f 	call	0x1f2c	; 0x1f2c <getSharpSensorInfo>
        printScharpSensorsValues(&sharpSensor);
     a9c:	80 e0       	ldi	r24, 0x00	; 0
     a9e:	91 e0       	ldi	r25, 0x01	; 1
     aa0:	0e 94 17 0f 	call	0x1e2e	; 0x1e2e <printScharpSensorsValues>
        printDataToCSharpApplcation (&sharpSensor,getbatteryLevel());
     aa4:	0e 94 3d 10 	call	0x207a	; 0x207a <getbatteryLevel>
     aa8:	bc 01       	movw	r22, r24
     aaa:	80 e0       	ldi	r24, 0x00	; 0
     aac:	91 e0       	ldi	r25, 0x01	; 1
     aae:	0e 94 be 0e 	call	0x1d7c	; 0x1d7c <printDataToCSharpApplcation>
        setStopwatch2(0);
     ab2:	10 92 5a 01 	sts	0x015A, r1
     ab6:	10 92 59 01 	sts	0x0159, r1
     aba:	08 95       	ret

00000abc <main>:
    }
}


int main(void)
{
     abc:	2f 92       	push	r2
     abe:	3f 92       	push	r3
     ac0:	4f 92       	push	r4
     ac2:	5f 92       	push	r5
     ac4:	6f 92       	push	r6
     ac6:	7f 92       	push	r7
     ac8:	8f 92       	push	r8
     aca:	9f 92       	push	r9
     acc:	af 92       	push	r10
     ace:	bf 92       	push	r11
     ad0:	cf 92       	push	r12
     ad2:	df 92       	push	r13
     ad4:	ef 92       	push	r14
     ad6:	ff 92       	push	r15
     ad8:	0f 93       	push	r16
     ada:	1f 93       	push	r17

    portInit(); // na een koude start moeten de poorten goed geinit worden.
     adc:	1b ba       	out	0x1b, r1	; 27
     ade:	87 e0       	ldi	r24, 0x07	; 7
     ae0:	88 bb       	out	0x18, r24	; 24
     ae2:	8c ef       	ldi	r24, 0xFC	; 252
     ae4:	85 bb       	out	0x15, r24	; 21
     ae6:	81 e6       	ldi	r24, 0x61	; 97
     ae8:	82 bb       	out	0x12, r24	; 18
     aea:	1a ba       	out	0x1a, r1	; 26
     aec:	8b eb       	ldi	r24, 0xBB	; 187
     aee:	87 bb       	out	0x17, r24	; 23
     af0:	14 ba       	out	0x14, r1	; 20
     af2:	82 e9       	ldi	r24, 0x92	; 146
     af4:	81 bb       	out	0x11, r24	; 17

    I2CTWI_setTransmissionErrorHandler(I2C_transmissionError);
     af6:	89 e8       	ldi	r24, 0x89	; 137
     af8:	90 e1       	ldi	r25, 0x10	; 16
     afa:	0e 94 9f 0b 	call	0x173e	; 0x173e <I2CTWI_setTransmissionErrorHandler>

	initRP6Control();		// Initialize extension board processor
     afe:	0e 94 f5 09 	call	0x13ea	; 0x13ea <initRP6Control>
	initLCD();				// Initialize the LC-Display (LCD)
     b02:	0e 94 ad 07 	call	0xf5a	; 0xf5a <initLCD>
	I2CTWI_initMaster(100);
     b06:	88 e4       	ldi	r24, 0x48	; 72
     b08:	0e 94 8a 0b 	call	0x1714	; 0x1714 <__I2CTWI_initMaster>

	startStopwatch1();
     b0c:	80 91 56 01 	lds	r24, 0x0156
     b10:	81 60       	ori	r24, 0x01	; 1
     b12:	80 93 56 01 	sts	0x0156, r24
	startStopwatch2();
     b16:	80 91 56 01 	lds	r24, 0x0156
     b1a:	82 60       	ori	r24, 0x02	; 2
     b1c:	80 93 56 01 	sts	0x0156, r24
	startStopwatch4(); // wordt gebruikt door de compass module
     b20:	80 91 56 01 	lds	r24, 0x0156
     b24:	88 60       	ori	r24, 0x08	; 8
     b26:	80 93 56 01 	sts	0x0156, r24

	for(;;)
	{
	    pidValues.kpFactor      = 0.5;
        pidValues.tdFactor      = 0.0;
     b2a:	0f 2e       	mov	r0, r31
     b2c:	f0 e0       	ldi	r31, 0x00	; 0
     b2e:	ef 2e       	mov	r14, r31
     b30:	f0 e0       	ldi	r31, 0x00	; 0
     b32:	ff 2e       	mov	r15, r31
     b34:	f0 e0       	ldi	r31, 0x00	; 0
     b36:	0f 2f       	mov	r16, r31
     b38:	f0 e0       	ldi	r31, 0x00	; 0
     b3a:	1f 2f       	mov	r17, r31
     b3c:	f0 2d       	mov	r31, r0
        pidValues.tiFactor      = 500.0;
     b3e:	0f 2e       	mov	r0, r31
     b40:	f0 e0       	ldi	r31, 0x00	; 0
     b42:	2f 2e       	mov	r2, r31
     b44:	f0 e0       	ldi	r31, 0x00	; 0
     b46:	3f 2e       	mov	r3, r31
     b48:	fa ef       	ldi	r31, 0xFA	; 250
     b4a:	4f 2e       	mov	r4, r31
     b4c:	f3 e4       	ldi	r31, 0x43	; 67
     b4e:	5f 2e       	mov	r5, r31
     b50:	f0 2d       	mov	r31, r0
        pidValues.pocessValue   = (double)sharpSensor.diffRightSide;
        pidValues.setpoint      = 0.0;
        pidValues.lowBound      = -20.0;
     b52:	0f 2e       	mov	r0, r31
     b54:	f0 e0       	ldi	r31, 0x00	; 0
     b56:	6f 2e       	mov	r6, r31
     b58:	f0 e0       	ldi	r31, 0x00	; 0
     b5a:	7f 2e       	mov	r7, r31
     b5c:	f0 ea       	ldi	r31, 0xA0	; 160
     b5e:	8f 2e       	mov	r8, r31
     b60:	f1 ec       	ldi	r31, 0xC1	; 193
     b62:	9f 2e       	mov	r9, r31
     b64:	f0 2d       	mov	r31, r0
        pidValues.upBound       = 20.0;
     b66:	0f 2e       	mov	r0, r31
     b68:	f0 e0       	ldi	r31, 0x00	; 0
     b6a:	af 2e       	mov	r10, r31
     b6c:	f0 e0       	ldi	r31, 0x00	; 0
     b6e:	bf 2e       	mov	r11, r31
     b70:	f0 ea       	ldi	r31, 0xA0	; 160
     b72:	cf 2e       	mov	r12, r31
     b74:	f1 e4       	ldi	r31, 0x41	; 65
     b76:	df 2e       	mov	r13, r31
     b78:	f0 2d       	mov	r31, r0
	startStopwatch2();
	startStopwatch4(); // wordt gebruikt door de compass module

	for(;;)
	{
	    pidValues.kpFactor      = 0.5;
     b7a:	80 e0       	ldi	r24, 0x00	; 0
     b7c:	90 e0       	ldi	r25, 0x00	; 0
     b7e:	a0 e0       	ldi	r26, 0x00	; 0
     b80:	bf e3       	ldi	r27, 0x3F	; 63
     b82:	80 93 34 01 	sts	0x0134, r24
     b86:	90 93 35 01 	sts	0x0135, r25
     b8a:	a0 93 36 01 	sts	0x0136, r26
     b8e:	b0 93 37 01 	sts	0x0137, r27
        pidValues.tdFactor      = 0.0;
     b92:	e0 92 3c 01 	sts	0x013C, r14
     b96:	f0 92 3d 01 	sts	0x013D, r15
     b9a:	00 93 3e 01 	sts	0x013E, r16
     b9e:	10 93 3f 01 	sts	0x013F, r17
        pidValues.tiFactor      = 500.0;
     ba2:	20 92 38 01 	sts	0x0138, r2
     ba6:	30 92 39 01 	sts	0x0139, r3
     baa:	40 92 3a 01 	sts	0x013A, r4
     bae:	50 92 3b 01 	sts	0x013B, r5
        pidValues.pocessValue   = (double)sharpSensor.diffRightSide;
     bb2:	60 91 08 01 	lds	r22, 0x0108
     bb6:	70 91 09 01 	lds	r23, 0x0109
     bba:	88 27       	eor	r24, r24
     bbc:	77 fd       	sbrc	r23, 7
     bbe:	80 95       	com	r24
     bc0:	98 2f       	mov	r25, r24
     bc2:	0e 94 cb 14 	call	0x2996	; 0x2996 <__floatsisf>
     bc6:	60 93 24 01 	sts	0x0124, r22
     bca:	70 93 25 01 	sts	0x0125, r23
     bce:	80 93 26 01 	sts	0x0126, r24
     bd2:	90 93 27 01 	sts	0x0127, r25
        pidValues.setpoint      = 0.0;
     bd6:	e0 92 28 01 	sts	0x0128, r14
     bda:	f0 92 29 01 	sts	0x0129, r15
     bde:	00 93 2a 01 	sts	0x012A, r16
     be2:	10 93 2b 01 	sts	0x012B, r17
        pidValues.lowBound      = -20.0;
     be6:	60 92 30 01 	sts	0x0130, r6
     bea:	70 92 31 01 	sts	0x0131, r7
     bee:	80 92 32 01 	sts	0x0132, r8
     bf2:	90 92 33 01 	sts	0x0133, r9
        pidValues.upBound       = 20.0;
     bf6:	a0 92 2c 01 	sts	0x012C, r10
     bfa:	b0 92 2d 01 	sts	0x012D, r11
     bfe:	c0 92 2e 01 	sts	0x012E, r12
     c02:	d0 92 2f 01 	sts	0x012F, r13


        taskFrontSensors();
     c06:	0e 94 43 05 	call	0xa86	; 0xa86 <taskFrontSensors>
        runningLight();
     c0a:	0e 94 b8 0f 	call	0x1f70	; 0x1f70 <runningLight>
     c0e:	b5 cf       	rjmp	.-150    	; 0xb7a <main+0xbe>

00000c10 <INT0_event_DUMMY>:
// Event Handlers. 
// Please make sure that you keep the Event Handler Functions as
// short as possible! 
// --> You usually don't need this stuff. 

void INT0_event_DUMMY(void){}
     c10:	08 95       	ret

00000c12 <INT0_setEventHandler>:
static void (*INT0_eventHandler)(void) = INT0_event_DUMMY;
void INT0_setEventHandler(void (*i0eventHandler)(void))
{
	INT0_eventHandler = i0eventHandler;
     c12:	90 93 79 00 	sts	0x0079, r25
     c16:	80 93 78 00 	sts	0x0078, r24
}
     c1a:	08 95       	ret

00000c1c <__vector_1>:

/**
 * External Interrupt 0 ISR
 */
ISR (INT0_vect)
{
     c1c:	1f 92       	push	r1
     c1e:	0f 92       	push	r0
     c20:	0f b6       	in	r0, 0x3f	; 63
     c22:	0f 92       	push	r0
     c24:	11 24       	eor	r1, r1
     c26:	2f 93       	push	r18
     c28:	3f 93       	push	r19
     c2a:	4f 93       	push	r20
     c2c:	5f 93       	push	r21
     c2e:	6f 93       	push	r22
     c30:	7f 93       	push	r23
     c32:	8f 93       	push	r24
     c34:	9f 93       	push	r25
     c36:	af 93       	push	r26
     c38:	bf 93       	push	r27
     c3a:	ef 93       	push	r30
     c3c:	ff 93       	push	r31
	INT0_eventHandler();
     c3e:	e0 91 78 00 	lds	r30, 0x0078
     c42:	f0 91 79 00 	lds	r31, 0x0079
     c46:	09 95       	icall
}
     c48:	ff 91       	pop	r31
     c4a:	ef 91       	pop	r30
     c4c:	bf 91       	pop	r27
     c4e:	af 91       	pop	r26
     c50:	9f 91       	pop	r25
     c52:	8f 91       	pop	r24
     c54:	7f 91       	pop	r23
     c56:	6f 91       	pop	r22
     c58:	5f 91       	pop	r21
     c5a:	4f 91       	pop	r20
     c5c:	3f 91       	pop	r19
     c5e:	2f 91       	pop	r18
     c60:	0f 90       	pop	r0
     c62:	0f be       	out	0x3f, r0	; 63
     c64:	0f 90       	pop	r0
     c66:	1f 90       	pop	r1
     c68:	18 95       	reti

00000c6a <INT1_event_DUMMY>:

void INT1_event_DUMMY(void){}
     c6a:	08 95       	ret

00000c6c <INT1_setEventHandler>:
static void (*INT1_eventHandler)(void) = INT1_event_DUMMY;
void INT1_setEventHandler(void (*i1eventHandler)(void))
{
	INT1_eventHandler = i1eventHandler;
     c6c:	90 93 77 00 	sts	0x0077, r25
     c70:	80 93 76 00 	sts	0x0076, r24
}
     c74:	08 95       	ret

00000c76 <__vector_2>:

/**
 * External Interrupt 1 ISR
 */
ISR (INT1_vect)
{
     c76:	1f 92       	push	r1
     c78:	0f 92       	push	r0
     c7a:	0f b6       	in	r0, 0x3f	; 63
     c7c:	0f 92       	push	r0
     c7e:	11 24       	eor	r1, r1
     c80:	2f 93       	push	r18
     c82:	3f 93       	push	r19
     c84:	4f 93       	push	r20
     c86:	5f 93       	push	r21
     c88:	6f 93       	push	r22
     c8a:	7f 93       	push	r23
     c8c:	8f 93       	push	r24
     c8e:	9f 93       	push	r25
     c90:	af 93       	push	r26
     c92:	bf 93       	push	r27
     c94:	ef 93       	push	r30
     c96:	ff 93       	push	r31
	INT1_eventHandler();
     c98:	e0 91 76 00 	lds	r30, 0x0076
     c9c:	f0 91 77 00 	lds	r31, 0x0077
     ca0:	09 95       	icall
}
     ca2:	ff 91       	pop	r31
     ca4:	ef 91       	pop	r30
     ca6:	bf 91       	pop	r27
     ca8:	af 91       	pop	r26
     caa:	9f 91       	pop	r25
     cac:	8f 91       	pop	r24
     cae:	7f 91       	pop	r23
     cb0:	6f 91       	pop	r22
     cb2:	5f 91       	pop	r21
     cb4:	4f 91       	pop	r20
     cb6:	3f 91       	pop	r19
     cb8:	2f 91       	pop	r18
     cba:	0f 90       	pop	r0
     cbc:	0f be       	out	0x3f, r0	; 63
     cbe:	0f 90       	pop	r0
     cc0:	1f 90       	pop	r1
     cc2:	18 95       	reti

00000cc4 <INT2_event_DUMMY>:

void INT2_event_DUMMY(void){}
     cc4:	08 95       	ret

00000cc6 <INT2_setEventHandler>:
static void (*INT2_eventHandler)(void) = INT2_event_DUMMY;
void INT2_setEventHandler(void (*i2eventHandler)(void))
{
	INT2_eventHandler = i2eventHandler;
     cc6:	90 93 75 00 	sts	0x0075, r25
     cca:	80 93 74 00 	sts	0x0074, r24
}
     cce:	08 95       	ret

00000cd0 <__vector_3>:

/**
 * External Interrupt 2 ISR
 */
ISR (INT2_vect)
{
     cd0:	1f 92       	push	r1
     cd2:	0f 92       	push	r0
     cd4:	0f b6       	in	r0, 0x3f	; 63
     cd6:	0f 92       	push	r0
     cd8:	11 24       	eor	r1, r1
     cda:	2f 93       	push	r18
     cdc:	3f 93       	push	r19
     cde:	4f 93       	push	r20
     ce0:	5f 93       	push	r21
     ce2:	6f 93       	push	r22
     ce4:	7f 93       	push	r23
     ce6:	8f 93       	push	r24
     ce8:	9f 93       	push	r25
     cea:	af 93       	push	r26
     cec:	bf 93       	push	r27
     cee:	ef 93       	push	r30
     cf0:	ff 93       	push	r31
	INT2_eventHandler();
     cf2:	e0 91 74 00 	lds	r30, 0x0074
     cf6:	f0 91 75 00 	lds	r31, 0x0075
     cfa:	09 95       	icall
}
     cfc:	ff 91       	pop	r31
     cfe:	ef 91       	pop	r30
     d00:	bf 91       	pop	r27
     d02:	af 91       	pop	r26
     d04:	9f 91       	pop	r25
     d06:	8f 91       	pop	r24
     d08:	7f 91       	pop	r23
     d0a:	6f 91       	pop	r22
     d0c:	5f 91       	pop	r21
     d0e:	4f 91       	pop	r20
     d10:	3f 91       	pop	r19
     d12:	2f 91       	pop	r18
     d14:	0f 90       	pop	r0
     d16:	0f be       	out	0x3f, r0	; 63
     d18:	0f 90       	pop	r0
     d1a:	1f 90       	pop	r1
     d1c:	18 95       	reti

00000d1e <readADC>:
 * is complete. 
 *
 */
uint16_t readADC(uint8_t channel)
{
	if((ADCSRA & (1<<ADSC))) return 0; // check if ADC is buisy...
     d1e:	36 9b       	sbis	0x06, 6	; 6
     d20:	03 c0       	rjmp	.+6      	; 0xd28 <readADC+0xa>
     d22:	20 e0       	ldi	r18, 0x00	; 0
     d24:	30 e0       	ldi	r19, 0x00	; 0
     d26:	09 c0       	rjmp	.+18     	; 0xd3a <readADC+0x1c>
	ADMUX = (1<<REFS0) | (0<<REFS1) | (channel<<MUX0);
     d28:	80 64       	ori	r24, 0x40	; 64
     d2a:	87 b9       	out	0x07, r24	; 7
	ADCSRA = (0<<ADIE) | (1<<ADSC) | (1<<ADEN) | (1<<ADPS2) | (1<<ADPS1) | (1<<ADIF);
     d2c:	86 ed       	ldi	r24, 0xD6	; 214
     d2e:	86 b9       	out	0x06, r24	; 6
	while ((ADCSRA & (1<<ADSC))); 
     d30:	36 99       	sbic	0x06, 6	; 6
     d32:	fe cf       	rjmp	.-4      	; 0xd30 <readADC+0x12>
	ADCSRA |= (1<<ADIF);
     d34:	34 9a       	sbi	0x06, 4	; 6
	return ADC;
     d36:	24 b1       	in	r18, 0x04	; 4
     d38:	35 b1       	in	r19, 0x05	; 5
}
     d3a:	c9 01       	movw	r24, r18
     d3c:	08 95       	ret

00000d3e <writeSPI>:
/**
 * Writes a single Databyte to the SPI Interface.
 */
void writeSPI(uint8_t data) 
{     
	SPDR = data;    
     d3e:	8f b9       	out	0x0f, r24	; 15
	while(!(SPSR & (1<<SPIF)));
     d40:	77 9b       	sbis	0x0e, 7	; 14
     d42:	fe cf       	rjmp	.-4      	; 0xd40 <writeSPI+0x2>
}
     d44:	08 95       	ret

00000d46 <readSPI>:
/**
 * Writes a single Databyte to the SPI Interface.
 */
void writeSPI(uint8_t data) 
{     
	SPDR = data;    
     d46:	8f ef       	ldi	r24, 0xFF	; 255
     d48:	8f b9       	out	0x0f, r24	; 15
	while(!(SPSR & (1<<SPIF)));
     d4a:	77 9b       	sbis	0x0e, 7	; 14
     d4c:	fe cf       	rjmp	.-4      	; 0xd4a <readSPI+0x4>
 * Reads a single Databyte from the SPI Interface.
 */
uint8_t readSPI(void)
{
	writeSPI(0xFF);
	return SPDR;
     d4e:	8f b1       	in	r24, 0x0f	; 15
}
     d50:	08 95       	ret

00000d52 <readWordSPI>:
/**
 * Writes a single Databyte to the SPI Interface.
 */
void writeSPI(uint8_t data) 
{     
	SPDR = data;    
     d52:	8f ef       	ldi	r24, 0xFF	; 255
     d54:	8f b9       	out	0x0f, r24	; 15
	while(!(SPSR & (1<<SPIF)));
     d56:	77 9b       	sbis	0x0e, 7	; 14
     d58:	fe cf       	rjmp	.-4      	; 0xd56 <readWordSPI+0x4>
 * Reads a single Databyte from the SPI Interface.
 */
uint8_t readSPI(void)
{
	writeSPI(0xFF);
	return SPDR;
     d5a:	3f b1       	in	r19, 0x0f	; 15
/**
 * Writes a single Databyte to the SPI Interface.
 */
void writeSPI(uint8_t data) 
{     
	SPDR = data;    
     d5c:	8f ef       	ldi	r24, 0xFF	; 255
     d5e:	8f b9       	out	0x0f, r24	; 15
	while(!(SPSR & (1<<SPIF)));
     d60:	77 9b       	sbis	0x0e, 7	; 14
     d62:	fe cf       	rjmp	.-4      	; 0xd60 <readWordSPI+0xe>
 * Reads a single Databyte from the SPI Interface.
 */
uint8_t readSPI(void)
{
	writeSPI(0xFF);
	return SPDR;
     d64:	2f b1       	in	r18, 0x0f	; 15
 * a 16 Bit value with first byte read in the upper 8 bits.
 */
uint16_t readWordSPI(void)
{
	uint16_t data = 0;
	data = readSPI() << 8;
     d66:	93 2f       	mov	r25, r19
     d68:	80 e0       	ldi	r24, 0x00	; 0
     d6a:	30 e0       	ldi	r19, 0x00	; 0
     d6c:	28 2b       	or	r18, r24
     d6e:	39 2b       	or	r19, r25
	data |= readSPI();
	return data;
}
     d70:	c9 01       	movw	r24, r18
     d72:	08 95       	ret

00000d74 <writeWordSPI>:
/**
 * Writes a single Databyte to the SPI Interface.
 */
void writeSPI(uint8_t data) 
{     
	SPDR = data;    
     d74:	9f b9       	out	0x0f, r25	; 15
	while(!(SPSR & (1<<SPIF)));
     d76:	77 9b       	sbis	0x0e, 7	; 14
     d78:	fe cf       	rjmp	.-4      	; 0xd76 <writeWordSPI+0x2>
/**
 * Writes a single Databyte to the SPI Interface.
 */
void writeSPI(uint8_t data) 
{     
	SPDR = data;    
     d7a:	8f b9       	out	0x0f, r24	; 15
	while(!(SPSR & (1<<SPIF)));
     d7c:	77 9b       	sbis	0x0e, 7	; 14
     d7e:	fe cf       	rjmp	.-4      	; 0xd7c <writeWordSPI+0x8>
 */
void writeWordSPI(uint16_t data)
{
	writeSPI((uint8_t)(data >> 8));
	writeSPI((uint8_t)data);
}
     d80:	08 95       	ret

00000d82 <writeBufferSPI>:
 * This function writes up to 255 Bytes to the SPI Interface.
 * The numer of bytes in the Buffer that shall be written is given 
 * by the parameter length.
 */
void writeBufferSPI(uint8_t *buffer, uint8_t length)
{
     d82:	fc 01       	movw	r30, r24
     d84:	90 e0       	ldi	r25, 0x00	; 0
     d86:	06 c0       	rjmp	.+12     	; 0xd94 <writeBufferSPI+0x12>
	uint8_t i = 0;
	for(; i < length; i++) {
		SPDR = buffer[i];    
     d88:	80 81       	ld	r24, Z
     d8a:	8f b9       	out	0x0f, r24	; 15
		while(!(SPSR & (1<<SPIF)));
     d8c:	77 9b       	sbis	0x0e, 7	; 14
     d8e:	fe cf       	rjmp	.-4      	; 0xd8c <writeBufferSPI+0xa>
 * by the parameter length.
 */
void writeBufferSPI(uint8_t *buffer, uint8_t length)
{
	uint8_t i = 0;
	for(; i < length; i++) {
     d90:	9f 5f       	subi	r25, 0xFF	; 255
     d92:	31 96       	adiw	r30, 0x01	; 1
     d94:	96 17       	cp	r25, r22
     d96:	c0 f3       	brcs	.-16     	; 0xd88 <writeBufferSPI+0x6>
		SPDR = buffer[i];    
		while(!(SPSR & (1<<SPIF)));
	}
}
     d98:	08 95       	ret

00000d9a <readBufferSPI>:

/** 
 * Reads "length" Bytes from SPI Interface into the buffer.
 */
void readBufferSPI(uint8_t *buffer, uint8_t length)
{
     d9a:	fc 01       	movw	r30, r24
     d9c:	90 e0       	ldi	r25, 0x00	; 0
	uint8_t i = 0;
	for(; i < length; i++) {
		SPDR = 0xFF;    
     d9e:	2f ef       	ldi	r18, 0xFF	; 255
     da0:	06 c0       	rjmp	.+12     	; 0xdae <readBufferSPI+0x14>
     da2:	2f b9       	out	0x0f, r18	; 15
		while(!(SPSR & (1<<SPIF)));
     da4:	77 9b       	sbis	0x0e, 7	; 14
     da6:	fe cf       	rjmp	.-4      	; 0xda4 <readBufferSPI+0xa>
		buffer[i] = SPDR;
     da8:	8f b1       	in	r24, 0x0f	; 15
     daa:	81 93       	st	Z+, r24
 * Reads "length" Bytes from SPI Interface into the buffer.
 */
void readBufferSPI(uint8_t *buffer, uint8_t length)
{
	uint8_t i = 0;
	for(; i < length; i++) {
     dac:	9f 5f       	subi	r25, 0xFF	; 255
     dae:	96 17       	cp	r25, r22
     db0:	c0 f3       	brcs	.-16     	; 0xda2 <readBufferSPI+0x8>
		SPDR = 0xFF;    
		while(!(SPSR & (1<<SPIF)));
		buffer[i] = SPDR;
	}
}
     db2:	08 95       	ret

00000db4 <SPI_EEPROM_readByte>:

/**
 * Reads a single Byte from the external EEPROM.
 */
uint8_t SPI_EEPROM_readByte(uint16_t memAddr)
{
     db4:	9c 01       	movw	r18, r24
	uint8_t data;
	PORTB &= ~MEM_CS;
     db6:	c0 98       	cbi	0x18, 0	; 24
/**
 * Writes a single Databyte to the SPI Interface.
 */
void writeSPI(uint8_t data) 
{     
	SPDR = data;    
     db8:	83 e0       	ldi	r24, 0x03	; 3
     dba:	8f b9       	out	0x0f, r24	; 15
	while(!(SPSR & (1<<SPIF)));
     dbc:	77 9b       	sbis	0x0e, 7	; 14
     dbe:	fe cf       	rjmp	.-4      	; 0xdbc <SPI_EEPROM_readByte+0x8>
uint8_t SPI_EEPROM_readByte(uint16_t memAddr)
{
	uint8_t data;
	PORTB &= ~MEM_CS;
	writeSPI(SPI_EEPROM_READ);
	writeWordSPI(memAddr);
     dc0:	c9 01       	movw	r24, r18
     dc2:	0e 94 ba 06 	call	0xd74	; 0xd74 <writeWordSPI>
/**
 * Writes a single Databyte to the SPI Interface.
 */
void writeSPI(uint8_t data) 
{     
	SPDR = data;    
     dc6:	8f ef       	ldi	r24, 0xFF	; 255
     dc8:	8f b9       	out	0x0f, r24	; 15
	while(!(SPSR & (1<<SPIF)));
     dca:	77 9b       	sbis	0x0e, 7	; 14
     dcc:	fe cf       	rjmp	.-4      	; 0xdca <SPI_EEPROM_readByte+0x16>
 * Reads a single Databyte from the SPI Interface.
 */
uint8_t readSPI(void)
{
	writeSPI(0xFF);
	return SPDR;
     dce:	8f b1       	in	r24, 0x0f	; 15
	uint8_t data;
	PORTB &= ~MEM_CS;
	writeSPI(SPI_EEPROM_READ);
	writeWordSPI(memAddr);
	data = readSPI();
	PORTB |= MEM_CS;
     dd0:	c0 9a       	sbi	0x18, 0	; 24
	return data;
}
     dd2:	08 95       	ret

00000dd4 <SPI_EEPROM_readBytes>:
 * Reads "length" Bytes into the Buffer "buffer" from startAdr on. 
 * You can read the complete EEPROM into a buffer at once - if it is large enough. 
 * (But you only have 2KB SRAM on a MEGA32 ;) )
 */
void SPI_EEPROM_readBytes(uint16_t startAddr, uint8_t *buffer, uint8_t length)
{
     dd4:	1f 93       	push	r17
     dd6:	cf 93       	push	r28
     dd8:	df 93       	push	r29
     dda:	9c 01       	movw	r18, r24
     ddc:	eb 01       	movw	r28, r22
     dde:	14 2f       	mov	r17, r20
	PORTB &= ~MEM_CS;
     de0:	c0 98       	cbi	0x18, 0	; 24
/**
 * Writes a single Databyte to the SPI Interface.
 */
void writeSPI(uint8_t data) 
{     
	SPDR = data;    
     de2:	83 e0       	ldi	r24, 0x03	; 3
     de4:	8f b9       	out	0x0f, r24	; 15
	while(!(SPSR & (1<<SPIF)));
     de6:	77 9b       	sbis	0x0e, 7	; 14
     de8:	fe cf       	rjmp	.-4      	; 0xde6 <SPI_EEPROM_readBytes+0x12>
 */
void SPI_EEPROM_readBytes(uint16_t startAddr, uint8_t *buffer, uint8_t length)
{
	PORTB &= ~MEM_CS;
	writeSPI(SPI_EEPROM_READ);
	writeWordSPI(startAddr);
     dea:	c9 01       	movw	r24, r18
     dec:	0e 94 ba 06 	call	0xd74	; 0xd74 <writeWordSPI>
	readBufferSPI(&buffer[0], length);
     df0:	ce 01       	movw	r24, r28
     df2:	61 2f       	mov	r22, r17
     df4:	0e 94 cd 06 	call	0xd9a	; 0xd9a <readBufferSPI>
	PORTB |= MEM_CS;
     df8:	c0 9a       	sbi	0x18, 0	; 24
}
     dfa:	df 91       	pop	r29
     dfc:	cf 91       	pop	r28
     dfe:	1f 91       	pop	r17
     e00:	08 95       	ret

00000e02 <SPI_EEPROM_enableWrite>:
/**
 * Enable Write Mode
 */
void SPI_EEPROM_enableWrite(void)
{
	PORTB &= ~MEM_CS;
     e02:	c0 98       	cbi	0x18, 0	; 24
/**
 * Writes a single Databyte to the SPI Interface.
 */
void writeSPI(uint8_t data) 
{     
	SPDR = data;    
     e04:	86 e0       	ldi	r24, 0x06	; 6
     e06:	8f b9       	out	0x0f, r24	; 15
	while(!(SPSR & (1<<SPIF)));
     e08:	77 9b       	sbis	0x0e, 7	; 14
     e0a:	fe cf       	rjmp	.-4      	; 0xe08 <SPI_EEPROM_enableWrite+0x6>
 */
void SPI_EEPROM_enableWrite(void)
{
	PORTB &= ~MEM_CS;
	writeSPI(SPI_EEPROM_WREN);
	PORTB |= MEM_CS;
     e0c:	c0 9a       	sbi	0x18, 0	; 24
}
     e0e:	08 95       	ret

00000e10 <SPI_EEPROM_disableWrite>:
/**
 * Disable Write Mode
 */
void SPI_EEPROM_disableWrite(void)
{
	PORTB &= ~MEM_CS;
     e10:	c0 98       	cbi	0x18, 0	; 24
/**
 * Writes a single Databyte to the SPI Interface.
 */
void writeSPI(uint8_t data) 
{     
	SPDR = data;    
     e12:	84 e0       	ldi	r24, 0x04	; 4
     e14:	8f b9       	out	0x0f, r24	; 15
	while(!(SPSR & (1<<SPIF)));
     e16:	77 9b       	sbis	0x0e, 7	; 14
     e18:	fe cf       	rjmp	.-4      	; 0xe16 <SPI_EEPROM_disableWrite+0x6>
 */
void SPI_EEPROM_disableWrite(void)
{
	PORTB &= ~MEM_CS;
	writeSPI(SPI_EEPROM_WRDI);
	PORTB |= MEM_CS;
     e1a:	c0 9a       	sbi	0x18, 0	; 24
}
     e1c:	08 95       	ret

00000e1e <SPI_EEPROM_getStatus>:
 * Writing takes about 5ms. 
 */
uint8_t SPI_EEPROM_getStatus(void)
{
	uint8_t status;
	PORTB &= ~MEM_CS;
     e1e:	c0 98       	cbi	0x18, 0	; 24
/**
 * Writes a single Databyte to the SPI Interface.
 */
void writeSPI(uint8_t data) 
{     
	SPDR = data;    
     e20:	85 e0       	ldi	r24, 0x05	; 5
     e22:	8f b9       	out	0x0f, r24	; 15
	while(!(SPSR & (1<<SPIF)));
     e24:	77 9b       	sbis	0x0e, 7	; 14
     e26:	fe cf       	rjmp	.-4      	; 0xe24 <SPI_EEPROM_getStatus+0x6>
/**
 * Writes a single Databyte to the SPI Interface.
 */
void writeSPI(uint8_t data) 
{     
	SPDR = data;    
     e28:	8f ef       	ldi	r24, 0xFF	; 255
     e2a:	8f b9       	out	0x0f, r24	; 15
	while(!(SPSR & (1<<SPIF)));
     e2c:	77 9b       	sbis	0x0e, 7	; 14
     e2e:	fe cf       	rjmp	.-4      	; 0xe2c <SPI_EEPROM_getStatus+0xe>
 * Reads a single Databyte from the SPI Interface.
 */
uint8_t readSPI(void)
{
	writeSPI(0xFF);
	return SPDR;
     e30:	8f b1       	in	r24, 0x0f	; 15
{
	uint8_t status;
	PORTB &= ~MEM_CS;
	writeSPI(SPI_EEPROM_RDSR);
	status = readSPI();
	PORTB |= MEM_CS;
     e32:	c0 9a       	sbi	0x18, 0	; 24
	return status;
}
     e34:	08 95       	ret

00000e36 <SPI_EEPROM_writeBytes>:
 * instead only up to 63 and then it continues at Byte 0 and writes 
 * the rest up to Byte 10!
 *
 */
void SPI_EEPROM_writeBytes(uint16_t startAddr, uint8_t *buffer, uint8_t length)
{
     e36:	ff 92       	push	r15
     e38:	0f 93       	push	r16
     e3a:	1f 93       	push	r17
     e3c:	cf 93       	push	r28
     e3e:	df 93       	push	r29
     e40:	ec 01       	movw	r28, r24
     e42:	16 2f       	mov	r17, r22
     e44:	07 2f       	mov	r16, r23
     e46:	f4 2e       	mov	r15, r20
	while(SPI_EEPROM_getStatus() & SPI_EEPROM_STAT_WIP);
     e48:	0e 94 0f 07 	call	0xe1e	; 0xe1e <SPI_EEPROM_getStatus>
     e4c:	80 fd       	sbrc	r24, 0
     e4e:	fc cf       	rjmp	.-8      	; 0xe48 <SPI_EEPROM_writeBytes+0x12>
	SPI_EEPROM_enableWrite();
     e50:	0e 94 01 07 	call	0xe02	; 0xe02 <SPI_EEPROM_enableWrite>
	PORTB &= ~MEM_CS;
     e54:	c0 98       	cbi	0x18, 0	; 24
/**
 * Writes a single Databyte to the SPI Interface.
 */
void writeSPI(uint8_t data) 
{     
	SPDR = data;    
     e56:	82 e0       	ldi	r24, 0x02	; 2
     e58:	8f b9       	out	0x0f, r24	; 15
	while(!(SPSR & (1<<SPIF)));
     e5a:	77 9b       	sbis	0x0e, 7	; 14
     e5c:	fe cf       	rjmp	.-4      	; 0xe5a <SPI_EEPROM_writeBytes+0x24>
{
	while(SPI_EEPROM_getStatus() & SPI_EEPROM_STAT_WIP);
	SPI_EEPROM_enableWrite();
	PORTB &= ~MEM_CS;
	writeSPI(SPI_EEPROM_WRITE);
	writeWordSPI(startAddr);
     e5e:	ce 01       	movw	r24, r28
     e60:	0e 94 ba 06 	call	0xd74	; 0xd74 <writeWordSPI>
     e64:	81 2f       	mov	r24, r17
     e66:	90 2f       	mov	r25, r16
     e68:	9c 01       	movw	r18, r24
     e6a:	f9 01       	movw	r30, r18
     e6c:	90 e0       	ldi	r25, 0x00	; 0
     e6e:	06 c0       	rjmp	.+12     	; 0xe7c <SPI_EEPROM_writeBytes+0x46>
 */
void writeBufferSPI(uint8_t *buffer, uint8_t length)
{
	uint8_t i = 0;
	for(; i < length; i++) {
		SPDR = buffer[i];    
     e70:	80 81       	ld	r24, Z
     e72:	8f b9       	out	0x0f, r24	; 15
		while(!(SPSR & (1<<SPIF)));
     e74:	77 9b       	sbis	0x0e, 7	; 14
     e76:	fe cf       	rjmp	.-4      	; 0xe74 <SPI_EEPROM_writeBytes+0x3e>
 * by the parameter length.
 */
void writeBufferSPI(uint8_t *buffer, uint8_t length)
{
	uint8_t i = 0;
	for(; i < length; i++) {
     e78:	9f 5f       	subi	r25, 0xFF	; 255
     e7a:	31 96       	adiw	r30, 0x01	; 1
     e7c:	9f 15       	cp	r25, r15
     e7e:	c0 f3       	brcs	.-16     	; 0xe70 <SPI_EEPROM_writeBytes+0x3a>
	SPI_EEPROM_enableWrite();
	PORTB &= ~MEM_CS;
	writeSPI(SPI_EEPROM_WRITE);
	writeWordSPI(startAddr);
	writeBufferSPI(&buffer[0], length);
	PORTB |= MEM_CS;
     e80:	c0 9a       	sbi	0x18, 0	; 24
}
     e82:	df 91       	pop	r29
     e84:	cf 91       	pop	r28
     e86:	1f 91       	pop	r17
     e88:	0f 91       	pop	r16
     e8a:	ff 90       	pop	r15
     e8c:	08 95       	ret

00000e8e <SPI_EEPROM_writeByte>:

/**
 * Write a single data byte to the specified EEPROM address.
 */
void SPI_EEPROM_writeByte(uint16_t memAddr, uint8_t data)
{
     e8e:	1f 93       	push	r17
     e90:	cf 93       	push	r28
     e92:	df 93       	push	r29
     e94:	ec 01       	movw	r28, r24
     e96:	16 2f       	mov	r17, r22
	while(SPI_EEPROM_getStatus() & SPI_EEPROM_STAT_WIP);
     e98:	0e 94 0f 07 	call	0xe1e	; 0xe1e <SPI_EEPROM_getStatus>
     e9c:	80 fd       	sbrc	r24, 0
     e9e:	fc cf       	rjmp	.-8      	; 0xe98 <SPI_EEPROM_writeByte+0xa>
	SPI_EEPROM_enableWrite();
     ea0:	0e 94 01 07 	call	0xe02	; 0xe02 <SPI_EEPROM_enableWrite>
	PORTB &= ~MEM_CS;
     ea4:	c0 98       	cbi	0x18, 0	; 24
/**
 * Writes a single Databyte to the SPI Interface.
 */
void writeSPI(uint8_t data) 
{     
	SPDR = data;    
     ea6:	82 e0       	ldi	r24, 0x02	; 2
     ea8:	8f b9       	out	0x0f, r24	; 15
	while(!(SPSR & (1<<SPIF)));
     eaa:	77 9b       	sbis	0x0e, 7	; 14
     eac:	fe cf       	rjmp	.-4      	; 0xeaa <SPI_EEPROM_writeByte+0x1c>
{
	while(SPI_EEPROM_getStatus() & SPI_EEPROM_STAT_WIP);
	SPI_EEPROM_enableWrite();
	PORTB &= ~MEM_CS;
	writeSPI(SPI_EEPROM_WRITE);
	writeWordSPI(memAddr);
     eae:	ce 01       	movw	r24, r28
     eb0:	0e 94 ba 06 	call	0xd74	; 0xd74 <writeWordSPI>
/**
 * Writes a single Databyte to the SPI Interface.
 */
void writeSPI(uint8_t data) 
{     
	SPDR = data;    
     eb4:	1f b9       	out	0x0f, r17	; 15
	while(!(SPSR & (1<<SPIF)));
     eb6:	77 9b       	sbis	0x0e, 7	; 14
     eb8:	fe cf       	rjmp	.-4      	; 0xeb6 <SPI_EEPROM_writeByte+0x28>
	SPI_EEPROM_enableWrite();
	PORTB &= ~MEM_CS;
	writeSPI(SPI_EEPROM_WRITE);
	writeWordSPI(memAddr);
	writeSPI(data);
	PORTB |= MEM_CS;
     eba:	c0 9a       	sbi	0x18, 0	; 24
}
     ebc:	df 91       	pop	r29
     ebe:	cf 91       	pop	r28
     ec0:	1f 91       	pop	r17
     ec2:	08 95       	ret

00000ec4 <outputExt>:
 * in 4 or 8bit mode - we use 4bit mode to save portpins) 
 *
 */
void outputExt(void)
{      
  writeSPI(externalPort.byte);   
     ec4:	80 91 67 01 	lds	r24, 0x0167
/**
 * Writes a single Databyte to the SPI Interface.
 */
void writeSPI(uint8_t data) 
{     
	SPDR = data;    
     ec8:	8f b9       	out	0x0f, r24	; 15
	while(!(SPSR & (1<<SPIF)));
     eca:	77 9b       	sbis	0x0e, 7	; 14
     ecc:	fe cf       	rjmp	.-4      	; 0xeca <outputExt+0x6>
 *
 */
void outputExt(void)
{      
  writeSPI(externalPort.byte);   
  PORTD |= STR;
     ece:	94 9a       	sbi	0x12, 4	; 18
  nop();
     ed0:	00 00       	nop
  nop();
     ed2:	00 00       	nop
  PORTD &= ~STR;        
     ed4:	94 98       	cbi	0x12, 4	; 18
}
     ed6:	08 95       	ret

00000ed8 <setLEDs>:
 * are connected to the LCD! 
 *
 */
void setLEDs(uint8_t leds)
{
	externalPort.LEDS = leds;
     ed8:	8f 70       	andi	r24, 0x0F	; 15
     eda:	90 91 67 01 	lds	r25, 0x0167
     ede:	90 7f       	andi	r25, 0xF0	; 240
     ee0:	98 2b       	or	r25, r24
     ee2:	90 93 67 01 	sts	0x0167, r25
	outputExt();
     ee6:	0e 94 62 07 	call	0xec4	; 0xec4 <outputExt>
}
     eea:	08 95       	ret

00000eec <setLCDD>:
 * enable line of the LCD to 'inform' the LCD about the new data.
 *
 */
void setLCDD(uint8_t lcdd)
{
	externalPort.LCDD = lcdd;
     eec:	82 95       	swap	r24
     eee:	80 7f       	andi	r24, 0xF0	; 240
     ef0:	90 91 67 01 	lds	r25, 0x0167
     ef4:	9f 70       	andi	r25, 0x0F	; 15
     ef6:	98 2b       	or	r25, r24
     ef8:	90 93 67 01 	sts	0x0167, r25
	outputExt();
     efc:	0e 94 62 07 	call	0xec4	; 0xec4 <outputExt>
	PORTB |= LCD_EN;
     f00:	c4 9a       	sbi	0x18, 4	; 24
     f02:	82 e3       	ldi	r24, 0x32	; 50
     f04:	90 e0       	ldi	r25, 0x00	; 0
     f06:	01 c0       	rjmp	.+2      	; 0xf0a <setLCDD+0x1e>
 * Example:
 * 	delayCycles(1000); // Delays for *about* 1000 instruction cycles
 */
void delayCycles(uint16_t dly)
{
	while(dly--) nop();
     f08:	00 00       	nop
     f0a:	01 97       	sbiw	r24, 0x01	; 1
     f0c:	2f ef       	ldi	r18, 0xFF	; 255
     f0e:	8f 3f       	cpi	r24, 0xFF	; 255
     f10:	92 07       	cpc	r25, r18
     f12:	d1 f7       	brne	.-12     	; 0xf08 <setLCDD+0x1c>
{
	externalPort.LCDD = lcdd;
	outputExt();
	PORTB |= LCD_EN;
	delayCycles(50);
	PORTB &= ~LCD_EN;
     f14:	c4 98       	cbi	0x18, 4	; 24
}
     f16:	08 95       	ret

00000f18 <write4BitLCDData>:

/**
 * Write a 8bit-byte in two nibbles of 4bit to the LCD.
 */
void write4BitLCDData(uint8_t data)
{
     f18:	1f 93       	push	r17
     f1a:	18 2f       	mov	r17, r24
	setLCDD(data >> 4);
     f1c:	82 95       	swap	r24
     f1e:	8f 70       	andi	r24, 0x0F	; 15
     f20:	0e 94 76 07 	call	0xeec	; 0xeec <setLCDD>
	setLCDD(data);
     f24:	81 2f       	mov	r24, r17
     f26:	0e 94 76 07 	call	0xeec	; 0xeec <setLCDD>
     f2a:	86 e9       	ldi	r24, 0x96	; 150
     f2c:	90 e0       	ldi	r25, 0x00	; 0
     f2e:	01 c0       	rjmp	.+2      	; 0xf32 <write4BitLCDData+0x1a>
 * Example:
 * 	delayCycles(1000); // Delays for *about* 1000 instruction cycles
 */
void delayCycles(uint16_t dly)
{
	while(dly--) nop();
     f30:	00 00       	nop
     f32:	01 97       	sbiw	r24, 0x01	; 1
     f34:	2f ef       	ldi	r18, 0xFF	; 255
     f36:	8f 3f       	cpi	r24, 0xFF	; 255
     f38:	92 07       	cpc	r25, r18
     f3a:	d1 f7       	brne	.-12     	; 0xf30 <write4BitLCDData+0x18>
void write4BitLCDData(uint8_t data)
{
	setLCDD(data >> 4);
	setLCDD(data);
	delayCycles(150);
}
     f3c:	1f 91       	pop	r17
     f3e:	08 95       	ret

00000f40 <writeLCDCommand>:
/**
 * Write a command to the LCD.
 */
void writeLCDCommand(uint8_t cmd)
{
	PORTB &= ~LCD_RS;
     f40:	c3 98       	cbi	0x18, 3	; 24
	write4BitLCDData(cmd);
     f42:	0e 94 8c 07 	call	0xf18	; 0xf18 <write4BitLCDData>
     f46:	86 e9       	ldi	r24, 0x96	; 150
     f48:	90 e0       	ldi	r25, 0x00	; 0
     f4a:	01 c0       	rjmp	.+2      	; 0xf4e <writeLCDCommand+0xe>
 * Example:
 * 	delayCycles(1000); // Delays for *about* 1000 instruction cycles
 */
void delayCycles(uint16_t dly)
{
	while(dly--) nop();
     f4c:	00 00       	nop
     f4e:	01 97       	sbiw	r24, 0x01	; 1
     f50:	2f ef       	ldi	r18, 0xFF	; 255
     f52:	8f 3f       	cpi	r24, 0xFF	; 255
     f54:	92 07       	cpc	r25, r18
     f56:	d1 f7       	brne	.-12     	; 0xf4c <writeLCDCommand+0xc>
void writeLCDCommand(uint8_t cmd)
{
	PORTB &= ~LCD_RS;
	write4BitLCDData(cmd);
	delayCycles(150);
}
     f58:	08 95       	ret

00000f5a <initLCD>:
 */
void initLCD(void)
{
	//delayCycles(34000); No need for Power ON delay as usually the
	// Bootloader should have been executed before...
	setLCDD(0b0011);
     f5a:	83 e0       	ldi	r24, 0x03	; 3
     f5c:	0e 94 76 07 	call	0xeec	; 0xeec <setLCDD>
     f60:	80 e5       	ldi	r24, 0x50	; 80
     f62:	96 e4       	ldi	r25, 0x46	; 70
     f64:	01 c0       	rjmp	.+2      	; 0xf68 <initLCD+0xe>
 * Example:
 * 	delayCycles(1000); // Delays for *about* 1000 instruction cycles
 */
void delayCycles(uint16_t dly)
{
	while(dly--) nop();
     f66:	00 00       	nop
     f68:	01 97       	sbiw	r24, 0x01	; 1
     f6a:	2f ef       	ldi	r18, 0xFF	; 255
     f6c:	8f 3f       	cpi	r24, 0xFF	; 255
     f6e:	92 07       	cpc	r25, r18
     f70:	d1 f7       	brne	.-12     	; 0xf66 <initLCD+0xc>
{
	//delayCycles(34000); No need for Power ON delay as usually the
	// Bootloader should have been executed before...
	setLCDD(0b0011);
	delayCycles(18000);
	setLCDD(0b0011);
     f72:	83 e0       	ldi	r24, 0x03	; 3
     f74:	0e 94 76 07 	call	0xeec	; 0xeec <setLCDD>
     f78:	8c e7       	ldi	r24, 0x7C	; 124
     f7a:	95 e1       	ldi	r25, 0x15	; 21
     f7c:	01 c0       	rjmp	.+2      	; 0xf80 <initLCD+0x26>
 * Example:
 * 	delayCycles(1000); // Delays for *about* 1000 instruction cycles
 */
void delayCycles(uint16_t dly)
{
	while(dly--) nop();
     f7e:	00 00       	nop
     f80:	01 97       	sbiw	r24, 0x01	; 1
     f82:	2f ef       	ldi	r18, 0xFF	; 255
     f84:	8f 3f       	cpi	r24, 0xFF	; 255
     f86:	92 07       	cpc	r25, r18
     f88:	d1 f7       	brne	.-12     	; 0xf7e <initLCD+0x24>
	// Bootloader should have been executed before...
	setLCDD(0b0011);
	delayCycles(18000);
	setLCDD(0b0011);
	delayCycles(5500);
	setLCDD(0b0011);
     f8a:	83 e0       	ldi	r24, 0x03	; 3
     f8c:	0e 94 76 07 	call	0xeec	; 0xeec <setLCDD>
     f90:	8c e7       	ldi	r24, 0x7C	; 124
     f92:	95 e1       	ldi	r25, 0x15	; 21
     f94:	01 c0       	rjmp	.+2      	; 0xf98 <initLCD+0x3e>
 * Example:
 * 	delayCycles(1000); // Delays for *about* 1000 instruction cycles
 */
void delayCycles(uint16_t dly)
{
	while(dly--) nop();
     f96:	00 00       	nop
     f98:	01 97       	sbiw	r24, 0x01	; 1
     f9a:	2f ef       	ldi	r18, 0xFF	; 255
     f9c:	8f 3f       	cpi	r24, 0xFF	; 255
     f9e:	92 07       	cpc	r25, r18
     fa0:	d1 f7       	brne	.-12     	; 0xf96 <initLCD+0x3c>
	delayCycles(18000);
	setLCDD(0b0011);
	delayCycles(5500);
	setLCDD(0b0011);
	delayCycles(5500);
	setLCDD(0b0010);
     fa2:	82 e0       	ldi	r24, 0x02	; 2
     fa4:	0e 94 76 07 	call	0xeec	; 0xeec <setLCDD>
     fa8:	8c e7       	ldi	r24, 0x7C	; 124
     faa:	95 e1       	ldi	r25, 0x15	; 21
     fac:	01 c0       	rjmp	.+2      	; 0xfb0 <initLCD+0x56>
 * Example:
 * 	delayCycles(1000); // Delays for *about* 1000 instruction cycles
 */
void delayCycles(uint16_t dly)
{
	while(dly--) nop();
     fae:	00 00       	nop
     fb0:	01 97       	sbiw	r24, 0x01	; 1
     fb2:	2f ef       	ldi	r18, 0xFF	; 255
     fb4:	8f 3f       	cpi	r24, 0xFF	; 255
     fb6:	92 07       	cpc	r25, r18
     fb8:	d1 f7       	brne	.-12     	; 0xfae <initLCD+0x54>
	delayCycles(5500);
	setLCDD(0b0011);
	delayCycles(5500);
	setLCDD(0b0010);
	delayCycles(5500);
	writeLCDCommand(0b00101000);
     fba:	88 e2       	ldi	r24, 0x28	; 40
     fbc:	0e 94 a0 07 	call	0xf40	; 0xf40 <writeLCDCommand>
     fc0:	8c e7       	ldi	r24, 0x7C	; 124
     fc2:	95 e1       	ldi	r25, 0x15	; 21
     fc4:	01 c0       	rjmp	.+2      	; 0xfc8 <initLCD+0x6e>
 * Example:
 * 	delayCycles(1000); // Delays for *about* 1000 instruction cycles
 */
void delayCycles(uint16_t dly)
{
	while(dly--) nop();
     fc6:	00 00       	nop
     fc8:	01 97       	sbiw	r24, 0x01	; 1
     fca:	2f ef       	ldi	r18, 0xFF	; 255
     fcc:	8f 3f       	cpi	r24, 0xFF	; 255
     fce:	92 07       	cpc	r25, r18
     fd0:	d1 f7       	brne	.-12     	; 0xfc6 <initLCD+0x6c>
	delayCycles(5500);
	setLCDD(0b0010);
	delayCycles(5500);
	writeLCDCommand(0b00101000);
	delayCycles(5500);
	writeLCDCommand(0b00001000);
     fd2:	88 e0       	ldi	r24, 0x08	; 8
     fd4:	0e 94 a0 07 	call	0xf40	; 0xf40 <writeLCDCommand>
     fd8:	8c e7       	ldi	r24, 0x7C	; 124
     fda:	95 e1       	ldi	r25, 0x15	; 21
     fdc:	01 c0       	rjmp	.+2      	; 0xfe0 <initLCD+0x86>
 * Example:
 * 	delayCycles(1000); // Delays for *about* 1000 instruction cycles
 */
void delayCycles(uint16_t dly)
{
	while(dly--) nop();
     fde:	00 00       	nop
     fe0:	01 97       	sbiw	r24, 0x01	; 1
     fe2:	2f ef       	ldi	r18, 0xFF	; 255
     fe4:	8f 3f       	cpi	r24, 0xFF	; 255
     fe6:	92 07       	cpc	r25, r18
     fe8:	d1 f7       	brne	.-12     	; 0xfde <initLCD+0x84>
	delayCycles(5500);
	writeLCDCommand(0b00101000);
	delayCycles(5500);
	writeLCDCommand(0b00001000);
	delayCycles(5500);
	writeLCDCommand(0b00000001);
     fea:	81 e0       	ldi	r24, 0x01	; 1
     fec:	0e 94 a0 07 	call	0xf40	; 0xf40 <writeLCDCommand>
     ff0:	8c e7       	ldi	r24, 0x7C	; 124
     ff2:	95 e1       	ldi	r25, 0x15	; 21
     ff4:	01 c0       	rjmp	.+2      	; 0xff8 <initLCD+0x9e>
 * Example:
 * 	delayCycles(1000); // Delays for *about* 1000 instruction cycles
 */
void delayCycles(uint16_t dly)
{
	while(dly--) nop();
     ff6:	00 00       	nop
     ff8:	01 97       	sbiw	r24, 0x01	; 1
     ffa:	2f ef       	ldi	r18, 0xFF	; 255
     ffc:	8f 3f       	cpi	r24, 0xFF	; 255
     ffe:	92 07       	cpc	r25, r18
    1000:	d1 f7       	brne	.-12     	; 0xff6 <initLCD+0x9c>
	delayCycles(5500);
	writeLCDCommand(0b00001000);
	delayCycles(5500);
	writeLCDCommand(0b00000001);
	delayCycles(5500);
	writeLCDCommand(0b00000010);
    1002:	82 e0       	ldi	r24, 0x02	; 2
    1004:	0e 94 a0 07 	call	0xf40	; 0xf40 <writeLCDCommand>
    1008:	8c e7       	ldi	r24, 0x7C	; 124
    100a:	95 e1       	ldi	r25, 0x15	; 21
    100c:	01 c0       	rjmp	.+2      	; 0x1010 <initLCD+0xb6>
 * Example:
 * 	delayCycles(1000); // Delays for *about* 1000 instruction cycles
 */
void delayCycles(uint16_t dly)
{
	while(dly--) nop();
    100e:	00 00       	nop
    1010:	01 97       	sbiw	r24, 0x01	; 1
    1012:	2f ef       	ldi	r18, 0xFF	; 255
    1014:	8f 3f       	cpi	r24, 0xFF	; 255
    1016:	92 07       	cpc	r25, r18
    1018:	d1 f7       	brne	.-12     	; 0x100e <initLCD+0xb4>
	delayCycles(5500);
	writeLCDCommand(0b00000001);
	delayCycles(5500);
	writeLCDCommand(0b00000010);
	delayCycles(5500);
	writeLCDCommand(0b00001100);
    101a:	8c e0       	ldi	r24, 0x0C	; 12
    101c:	0e 94 a0 07 	call	0xf40	; 0xf40 <writeLCDCommand>
    1020:	8c e7       	ldi	r24, 0x7C	; 124
    1022:	95 e1       	ldi	r25, 0x15	; 21
    1024:	01 c0       	rjmp	.+2      	; 0x1028 <initLCD+0xce>
 * Example:
 * 	delayCycles(1000); // Delays for *about* 1000 instruction cycles
 */
void delayCycles(uint16_t dly)
{
	while(dly--) nop();
    1026:	00 00       	nop
    1028:	01 97       	sbiw	r24, 0x01	; 1
    102a:	2f ef       	ldi	r18, 0xFF	; 255
    102c:	8f 3f       	cpi	r24, 0xFF	; 255
    102e:	92 07       	cpc	r25, r18
    1030:	d1 f7       	brne	.-12     	; 0x1026 <initLCD+0xcc>
	delayCycles(5500);
	writeLCDCommand(0b00000010);
	delayCycles(5500);
	writeLCDCommand(0b00001100);
	delayCycles(5500);
}
    1032:	08 95       	ret

00001034 <clearLCD>:
/**
 * Clears the whole LCD!
 */
void clearLCD(void)
{
	writeLCDCommand(0b00000001);
    1034:	81 e0       	ldi	r24, 0x01	; 1
    1036:	0e 94 a0 07 	call	0xf40	; 0xf40 <writeLCDCommand>
    103a:	8c e7       	ldi	r24, 0x7C	; 124
    103c:	95 e1       	ldi	r25, 0x15	; 21
    103e:	01 c0       	rjmp	.+2      	; 0x1042 <clearLCD+0xe>
 * Example:
 * 	delayCycles(1000); // Delays for *about* 1000 instruction cycles
 */
void delayCycles(uint16_t dly)
{
	while(dly--) nop();
    1040:	00 00       	nop
    1042:	01 97       	sbiw	r24, 0x01	; 1
    1044:	2f ef       	ldi	r18, 0xFF	; 255
    1046:	8f 3f       	cpi	r24, 0xFF	; 255
    1048:	92 07       	cpc	r25, r18
    104a:	d1 f7       	brne	.-12     	; 0x1040 <clearLCD+0xc>
 */
void clearLCD(void)
{
	writeLCDCommand(0b00000001);
	delayCycles(5500);
}
    104c:	08 95       	ret

0000104e <writeCharLCD>:
 *			use setCursorPos function to move the cursor to a 
 *			different location!
 */
void writeCharLCD(uint8_t ch)
{
	PORTB |= LCD_RS;
    104e:	c3 9a       	sbi	0x18, 3	; 24
	write4BitLCDData(ch);
    1050:	0e 94 8c 07 	call	0xf18	; 0xf18 <write4BitLCDData>
    1054:	82 e3       	ldi	r24, 0x32	; 50
    1056:	90 e0       	ldi	r25, 0x00	; 0
    1058:	01 c0       	rjmp	.+2      	; 0x105c <writeCharLCD+0xe>
 * Example:
 * 	delayCycles(1000); // Delays for *about* 1000 instruction cycles
 */
void delayCycles(uint16_t dly)
{
	while(dly--) nop();
    105a:	00 00       	nop
    105c:	01 97       	sbiw	r24, 0x01	; 1
    105e:	2f ef       	ldi	r18, 0xFF	; 255
    1060:	8f 3f       	cpi	r24, 0xFF	; 255
    1062:	92 07       	cpc	r25, r18
    1064:	d1 f7       	brne	.-12     	; 0x105a <writeCharLCD+0xc>
void writeCharLCD(uint8_t ch)
{
	PORTB |= LCD_RS;
	write4BitLCDData(ch);
	delayCycles(50);
}
    1066:	08 95       	ret

00001068 <writeNStringLCD_P>:
 *			// you can simply write:
 *			writeStringLCD_P("RP6 Control");
 *
 */
void writeNStringLCD_P(const char *pstring)
{
    1068:	cf 93       	push	r28
    106a:	df 93       	push	r29
    106c:	ec 01       	movw	r28, r24
    106e:	02 c0       	rjmp	.+4      	; 0x1074 <writeNStringLCD_P+0xc>
    uint8_t c;
    for (;(c = pgm_read_byte_near(pstring++));writeCharLCD(c));
    1070:	0e 94 27 08 	call	0x104e	; 0x104e <writeCharLCD>
    1074:	fe 01       	movw	r30, r28
    1076:	21 96       	adiw	r28, 0x01	; 1
    1078:	84 91       	lpm	r24, Z+
    107a:	88 23       	and	r24, r24
    107c:	c9 f7       	brne	.-14     	; 0x1070 <writeNStringLCD_P+0x8>
}
    107e:	df 91       	pop	r29
    1080:	cf 91       	pop	r28
    1082:	08 95       	ret

00001084 <writeStringLCD>:

/**
 * Writes a String from SRAM to the LCD.
 */
void writeStringLCD(char *string)
{
    1084:	cf 93       	push	r28
    1086:	df 93       	push	r29
    1088:	ec 01       	movw	r28, r24
    108a:	03 c0       	rjmp	.+6      	; 0x1092 <writeStringLCD+0xe>
	while(*string)
		writeCharLCD(*string++);
    108c:	21 96       	adiw	r28, 0x01	; 1
    108e:	0e 94 27 08 	call	0x104e	; 0x104e <writeCharLCD>
/**
 * Writes a String from SRAM to the LCD.
 */
void writeStringLCD(char *string)
{
	while(*string)
    1092:	88 81       	ld	r24, Y
    1094:	88 23       	and	r24, r24
    1096:	d1 f7       	brne	.-12     	; 0x108c <writeStringLCD+0x8>
		writeCharLCD(*string++);
}
    1098:	df 91       	pop	r29
    109a:	cf 91       	pop	r28
    109c:	08 95       	ret

0000109e <writeStringLengthLCD>:
 *			// would output: "Robot System"
 *			// No matter if the specified length is 40 characters!
 *
 */
void writeStringLengthLCD(char *string, uint8_t length, uint8_t offset)
{
    109e:	1f 93       	push	r17
    10a0:	cf 93       	push	r28
    10a2:	df 93       	push	r29
    10a4:	16 2f       	mov	r17, r22
	for(string = &string[offset]; *string && length; length--)
    10a6:	ec 01       	movw	r28, r24
    10a8:	c4 0f       	add	r28, r20
    10aa:	d1 1d       	adc	r29, r1
    10ac:	04 c0       	rjmp	.+8      	; 0x10b6 <writeStringLengthLCD+0x18>
		writeCharLCD(*string++);
    10ae:	21 96       	adiw	r28, 0x01	; 1
    10b0:	0e 94 27 08 	call	0x104e	; 0x104e <writeCharLCD>
 *			// No matter if the specified length is 40 characters!
 *
 */
void writeStringLengthLCD(char *string, uint8_t length, uint8_t offset)
{
	for(string = &string[offset]; *string && length; length--)
    10b4:	11 50       	subi	r17, 0x01	; 1
    10b6:	88 81       	ld	r24, Y
    10b8:	88 23       	and	r24, r24
    10ba:	11 f0       	breq	.+4      	; 0x10c0 <writeStringLengthLCD+0x22>
    10bc:	11 23       	and	r17, r17
    10be:	b9 f7       	brne	.-18     	; 0x10ae <writeStringLengthLCD+0x10>
		writeCharLCD(*string++);
}
    10c0:	df 91       	pop	r29
    10c2:	cf 91       	pop	r28
    10c4:	1f 91       	pop	r17
    10c6:	08 95       	ret

000010c8 <setCursorPosLCD>:
/**
 * Sets the cursor position on LCD.
 */
void setCursorPosLCD(uint8_t line, uint8_t pos)
{
	pos |= 128;
    10c8:	60 68       	ori	r22, 0x80	; 128
	if(line==1) pos += 0x40;
    10ca:	81 30       	cpi	r24, 0x01	; 1
    10cc:	09 f4       	brne	.+2      	; 0x10d0 <setCursorPosLCD+0x8>
    10ce:	60 5c       	subi	r22, 0xC0	; 192
	writeLCDCommand(pos);
    10d0:	86 2f       	mov	r24, r22
    10d2:	0e 94 a0 07 	call	0xf40	; 0xf40 <writeLCDCommand>
}
    10d6:	08 95       	ret

000010d8 <_showScreenLCD_P>:
 * This function is useful for displaying text screens on the LCD.
 * It clears the whole LCD and writes the two Strings to line 1 and
 * line 2.
 */
void _showScreenLCD_P(const char *line1, const char *line2)
{
    10d8:	ef 92       	push	r14
    10da:	ff 92       	push	r15
    10dc:	0f 93       	push	r16
    10de:	1f 93       	push	r17
    10e0:	8c 01       	movw	r16, r24
    10e2:	7b 01       	movw	r14, r22
	clearLCD();
    10e4:	0e 94 1a 08 	call	0x1034	; 0x1034 <clearLCD>
	writeNStringLCD_P(line1);
    10e8:	c8 01       	movw	r24, r16
    10ea:	0e 94 34 08 	call	0x1068	; 0x1068 <writeNStringLCD_P>
	setCursorPosLCD(1, 0);
    10ee:	81 e0       	ldi	r24, 0x01	; 1
    10f0:	60 e0       	ldi	r22, 0x00	; 0
    10f2:	0e 94 64 08 	call	0x10c8	; 0x10c8 <setCursorPosLCD>
	writeNStringLCD_P(line2);
    10f6:	c7 01       	movw	r24, r14
    10f8:	0e 94 34 08 	call	0x1068	; 0x1068 <writeNStringLCD_P>
}
    10fc:	1f 91       	pop	r17
    10fe:	0f 91       	pop	r16
    1100:	ff 90       	pop	r15
    1102:	ef 90       	pop	r14
    1104:	08 95       	ret

00001106 <clearPosLCD>:

/**
 * Clears some characters after the given position.
 */
void clearPosLCD(uint8_t line, uint8_t pos, uint8_t length)
{
    1106:	1f 93       	push	r17
    1108:	14 2f       	mov	r17, r20
	setCursorPosLCD(line,pos);
    110a:	0e 94 64 08 	call	0x10c8	; 0x10c8 <setCursorPosLCD>
    110e:	04 c0       	rjmp	.+8      	; 0x1118 <clearPosLCD+0x12>
	while(length--)
		writeCharLCD(' ');
    1110:	80 e2       	ldi	r24, 0x20	; 32
    1112:	0e 94 27 08 	call	0x104e	; 0x104e <writeCharLCD>
    1116:	11 50       	subi	r17, 0x01	; 1
 * Clears some characters after the given position.
 */
void clearPosLCD(uint8_t line, uint8_t pos, uint8_t length)
{
	setCursorPosLCD(line,pos);
	while(length--)
    1118:	11 23       	and	r17, r17
    111a:	d1 f7       	brne	.-12     	; 0x1110 <clearPosLCD+0xa>
		writeCharLCD(' ');
}
    111c:	1f 91       	pop	r17
    111e:	08 95       	ret

00001120 <getPressedKeyNumber>:
 * Maybe you need to adjust these values because of variations
 * in the resitors of the keypad!
 *
 */
uint8_t getPressedKeyNumber(void)
{
    1120:	cf 93       	push	r28
    1122:	df 93       	push	r29
	uint16_t keys;
	keys = readADC(ADC_KEYPAD);
    1124:	81 e0       	ldi	r24, 0x01	; 1
    1126:	0e 94 8f 06 	call	0xd1e	; 0xd1e <readADC>
    112a:	ec 01       	movw	r28, r24
	if(keys < 1020) {
    112c:	83 e0       	ldi	r24, 0x03	; 3
    112e:	cc 3f       	cpi	r28, 0xFC	; 252
    1130:	d8 07       	cpc	r29, r24
    1132:	78 f4       	brcc	.+30     	; 0x1152 <getPressedKeyNumber+0x32>
		nop();
    1134:	00 00       	nop
		nop();
    1136:	00 00       	nop
		nop();
    1138:	00 00       	nop
		keys += readADC(ADC_KEYPAD);
    113a:	81 e0       	ldi	r24, 0x01	; 1
    113c:	0e 94 8f 06 	call	0xd1e	; 0xd1e <readADC>
    1140:	c8 0f       	add	r28, r24
    1142:	d9 1f       	adc	r29, r25
		keys >>= 1;
    1144:	d6 95       	lsr	r29
    1146:	c7 95       	ror	r28
	}
	if(keys < 50)
    1148:	c2 33       	cpi	r28, 0x32	; 50
    114a:	d1 05       	cpc	r29, r1
    114c:	10 f4       	brcc	.+4      	; 0x1152 <getPressedKeyNumber+0x32>
    114e:	81 e0       	ldi	r24, 0x01	; 1
    1150:	18 c0       	rjmp	.+48     	; 0x1182 <getPressedKeyNumber+0x62>
		return 1;
	if(keys < 580)
    1152:	82 e0       	ldi	r24, 0x02	; 2
    1154:	c4 34       	cpi	r28, 0x44	; 68
    1156:	d8 07       	cpc	r29, r24
    1158:	10 f4       	brcc	.+4      	; 0x115e <getPressedKeyNumber+0x3e>
    115a:	82 e0       	ldi	r24, 0x02	; 2
    115c:	12 c0       	rjmp	.+36     	; 0x1182 <getPressedKeyNumber+0x62>
		return 2;
	if(keys < 700)
    115e:	82 e0       	ldi	r24, 0x02	; 2
    1160:	cc 3b       	cpi	r28, 0xBC	; 188
    1162:	d8 07       	cpc	r29, r24
    1164:	10 f4       	brcc	.+4      	; 0x116a <getPressedKeyNumber+0x4a>
    1166:	83 e0       	ldi	r24, 0x03	; 3
    1168:	0c c0       	rjmp	.+24     	; 0x1182 <getPressedKeyNumber+0x62>
		return 3;
	if(keys < 790)
    116a:	83 e0       	ldi	r24, 0x03	; 3
    116c:	c6 31       	cpi	r28, 0x16	; 22
    116e:	d8 07       	cpc	r29, r24
    1170:	10 f4       	brcc	.+4      	; 0x1176 <getPressedKeyNumber+0x56>
    1172:	84 e0       	ldi	r24, 0x04	; 4
    1174:	06 c0       	rjmp	.+12     	; 0x1182 <getPressedKeyNumber+0x62>
		return 4;
	if(keys < 830)
    1176:	ce 53       	subi	r28, 0x3E	; 62
    1178:	d3 40       	sbci	r29, 0x03	; 3
    117a:	10 f0       	brcs	.+4      	; 0x1180 <getPressedKeyNumber+0x60>
    117c:	80 e0       	ldi	r24, 0x00	; 0
    117e:	01 c0       	rjmp	.+2      	; 0x1182 <getPressedKeyNumber+0x62>
    1180:	85 e0       	ldi	r24, 0x05	; 5
		return 5;
	return 0;
}
    1182:	df 91       	pop	r29
    1184:	cf 91       	pop	r28
    1186:	08 95       	ret

00001188 <checkPressedKeyEvent>:
 * to be released again!
 */
uint8_t checkPressedKeyEvent(void)
{
	static uint8_t pressed_key = 0;
	if(pressed_key) {
    1188:	80 91 8b 00 	lds	r24, 0x008B
    118c:	88 23       	and	r24, r24
    118e:	41 f0       	breq	.+16     	; 0x11a0 <checkPressedKeyEvent+0x18>
		if(!getPressedKeyNumber()) 
    1190:	0e 94 90 08 	call	0x1120	; 0x1120 <getPressedKeyNumber>
    1194:	88 23       	and	r24, r24
    1196:	11 f4       	brne	.+4      	; 0x119c <checkPressedKeyEvent+0x14>
			pressed_key = 0;
    1198:	10 92 8b 00 	sts	0x008B, r1
    119c:	80 e0       	ldi	r24, 0x00	; 0
    119e:	08 95       	ret
	}
	else {
		pressed_key = getPressedKeyNumber();
    11a0:	0e 94 90 08 	call	0x1120	; 0x1120 <getPressedKeyNumber>
    11a4:	80 93 8b 00 	sts	0x008B, r24
		if(pressed_key)
			return pressed_key;
	}
	return 0;
}
    11a8:	08 95       	ret

000011aa <checkReleasedKeyEvent>:
 * main loop. You don't need something like 
 * "while(getPressedKeyNumber());" to wait for the button
 * to be released again!
 */
uint8_t checkReleasedKeyEvent(void)
{
    11aa:	1f 93       	push	r17
	static uint8_t released_key = 0;
	if(released_key) {
    11ac:	10 91 8a 00 	lds	r17, 0x008A
    11b0:	11 23       	and	r17, r17
    11b2:	49 f0       	breq	.+18     	; 0x11c6 <checkReleasedKeyEvent+0x1c>
		if(!getPressedKeyNumber()) {
    11b4:	0e 94 90 08 	call	0x1120	; 0x1120 <getPressedKeyNumber>
    11b8:	88 23       	and	r24, r24
    11ba:	11 f0       	breq	.+4      	; 0x11c0 <checkReleasedKeyEvent+0x16>
    11bc:	10 e0       	ldi	r17, 0x00	; 0
    11be:	07 c0       	rjmp	.+14     	; 0x11ce <checkReleasedKeyEvent+0x24>
			uint8_t tmp = released_key;
			released_key = 0;
    11c0:	10 92 8a 00 	sts	0x008A, r1
    11c4:	04 c0       	rjmp	.+8      	; 0x11ce <checkReleasedKeyEvent+0x24>
			return tmp;
		}
	}
	else
		released_key = getPressedKeyNumber();
    11c6:	0e 94 90 08 	call	0x1120	; 0x1120 <getPressedKeyNumber>
    11ca:	80 93 8a 00 	sts	0x008A, r24
	return 0;
}
    11ce:	81 2f       	mov	r24, r17
    11d0:	1f 91       	pop	r17
    11d2:	08 95       	ret

000011d4 <dischargePeakDetector>:
 * used for the Microphone. This is required to remove any previous
 * charge from the capacitor. 
 */
void dischargePeakDetector(void)
{
	DDRA |= MIC;
    11d4:	d0 9a       	sbi	0x1a, 0	; 26
	PORTA &= ~MIC;
    11d6:	d8 98       	cbi	0x1b, 0	; 27
    11d8:	21 e0       	ldi	r18, 0x01	; 1
    11da:	30 e0       	ldi	r19, 0x00	; 0
    11dc:	07 c0       	rjmp	.+14     	; 0x11ec <dischargePeakDetector+0x18>
 *		// The maximum delay is:
 *		sleep(255); // delay 255 * 100us = 25500us = 25.5ms
 */
void sleep(uint8_t time)
{
	delay_timer = 0;
    11de:	10 92 68 01 	sts	0x0168, r1
	while (delay_timer <= time+1);
    11e2:	80 91 68 01 	lds	r24, 0x0168
    11e6:	90 e0       	ldi	r25, 0x00	; 0
    11e8:	0c 97       	sbiw	r24, 0x0c	; 12
    11ea:	dc f3       	brlt	.-10     	; 0x11e2 <dischargePeakDetector+0xe>
 *		mSleep(1000); // delay 1000 * 1ms = 1000ms = 1s
 *
 */
void mSleep(uint16_t time)
{
	while (time--) sleep(10);
    11ec:	21 50       	subi	r18, 0x01	; 1
    11ee:	30 40       	sbci	r19, 0x00	; 0
    11f0:	8f ef       	ldi	r24, 0xFF	; 255
    11f2:	2f 3f       	cpi	r18, 0xFF	; 255
    11f4:	38 07       	cpc	r19, r24
    11f6:	99 f7       	brne	.-26     	; 0x11de <dischargePeakDetector+0xa>
void dischargePeakDetector(void)
{
	DDRA |= MIC;
	PORTA &= ~MIC;
	mSleep(1);
	DDRA &= ~MIC;
    11f8:	d0 98       	cbi	0x1a, 0	; 26
}
    11fa:	08 95       	ret

000011fc <getMicrophonePeak>:
/**
 * Reads the Microphone peak detector and discharges it afterwards.
 * 
 */
uint16_t getMicrophonePeak(void)
{
    11fc:	cf 93       	push	r28
    11fe:	df 93       	push	r29
	uint16_t tmp;
	tmp = readADC(ADC_MIC);
    1200:	80 e0       	ldi	r24, 0x00	; 0
    1202:	0e 94 8f 06 	call	0xd1e	; 0xd1e <readADC>
    1206:	ec 01       	movw	r28, r24
	if(tmp > 4) 
    1208:	85 30       	cpi	r24, 0x05	; 5
    120a:	91 05       	cpc	r25, r1
    120c:	10 f0       	brcs	.+4      	; 0x1212 <getMicrophonePeak+0x16>
		dischargePeakDetector();
    120e:	0e 94 ea 08 	call	0x11d4	; 0x11d4 <dischargePeakDetector>
	return tmp;
}
    1212:	ce 01       	movw	r24, r28
    1214:	df 91       	pop	r29
    1216:	cf 91       	pop	r28
    1218:	08 95       	ret

0000121a <__vector_10>:
 *
 * By default, it runs at 10kHz which means this ISR is called
 * every ~100s! This is nice for timing stuff!
 */
ISR (TIMER0_COMP_vect)
{
    121a:	1f 92       	push	r1
    121c:	0f 92       	push	r0
    121e:	0f b6       	in	r0, 0x3f	; 63
    1220:	0f 92       	push	r0
    1222:	11 24       	eor	r1, r1
    1224:	8f 93       	push	r24
    1226:	9f 93       	push	r25
	// 16bit timer (100s resolution)
	timer++;
    1228:	80 91 10 01 	lds	r24, 0x0110
    122c:	90 91 11 01 	lds	r25, 0x0111
    1230:	01 96       	adiw	r24, 0x01	; 1
    1232:	90 93 11 01 	sts	0x0111, r25
    1236:	80 93 10 01 	sts	0x0110, r24
	
	// Blocking delay (100s):
	delay_timer++;
    123a:	80 91 68 01 	lds	r24, 0x0168
    123e:	8f 5f       	subi	r24, 0xFF	; 255
    1240:	80 93 68 01 	sts	0x0168, r24
	
	// All 1ms based timing stuff
	if(ms_timer++ >= 9) { // 10 * 100s = 1ms, >= 9 because 0..9 = 10 counts
    1244:	80 91 69 01 	lds	r24, 0x0169
    1248:	8f 5f       	subi	r24, 0xFF	; 255
    124a:	80 93 69 01 	sts	0x0169, r24
    124e:	81 50       	subi	r24, 0x01	; 1
    1250:	89 30       	cpi	r24, 0x09	; 9
    1252:	08 f4       	brcc	.+2      	; 0x1256 <__vector_10+0x3c>
    1254:	84 c0       	rjmp	.+264    	; 0x135e <__vector_10+0x144>
		// 16bit Stopwatches:
		if(stopwatches.watches & STOPWATCH1)
    1256:	80 91 56 01 	lds	r24, 0x0156
    125a:	80 ff       	sbrs	r24, 0
    125c:	09 c0       	rjmp	.+18     	; 0x1270 <__vector_10+0x56>
			stopwatches.watch1++;
    125e:	80 91 57 01 	lds	r24, 0x0157
    1262:	90 91 58 01 	lds	r25, 0x0158
    1266:	01 96       	adiw	r24, 0x01	; 1
    1268:	90 93 58 01 	sts	0x0158, r25
    126c:	80 93 57 01 	sts	0x0157, r24
		if(stopwatches.watches & STOPWATCH2)
    1270:	80 91 56 01 	lds	r24, 0x0156
    1274:	81 ff       	sbrs	r24, 1
    1276:	09 c0       	rjmp	.+18     	; 0x128a <__vector_10+0x70>
			stopwatches.watch2++;
    1278:	80 91 59 01 	lds	r24, 0x0159
    127c:	90 91 5a 01 	lds	r25, 0x015A
    1280:	01 96       	adiw	r24, 0x01	; 1
    1282:	90 93 5a 01 	sts	0x015A, r25
    1286:	80 93 59 01 	sts	0x0159, r24
		if(stopwatches.watches & STOPWATCH3)
    128a:	80 91 56 01 	lds	r24, 0x0156
    128e:	82 ff       	sbrs	r24, 2
    1290:	09 c0       	rjmp	.+18     	; 0x12a4 <__vector_10+0x8a>
			stopwatches.watch3++;
    1292:	80 91 5b 01 	lds	r24, 0x015B
    1296:	90 91 5c 01 	lds	r25, 0x015C
    129a:	01 96       	adiw	r24, 0x01	; 1
    129c:	90 93 5c 01 	sts	0x015C, r25
    12a0:	80 93 5b 01 	sts	0x015B, r24
		if(stopwatches.watches & STOPWATCH4)
    12a4:	80 91 56 01 	lds	r24, 0x0156
    12a8:	83 ff       	sbrs	r24, 3
    12aa:	09 c0       	rjmp	.+18     	; 0x12be <__vector_10+0xa4>
			stopwatches.watch4++;
    12ac:	80 91 5d 01 	lds	r24, 0x015D
    12b0:	90 91 5e 01 	lds	r25, 0x015E
    12b4:	01 96       	adiw	r24, 0x01	; 1
    12b6:	90 93 5e 01 	sts	0x015E, r25
    12ba:	80 93 5d 01 	sts	0x015D, r24
		if(stopwatches.watches & STOPWATCH5)
    12be:	80 91 56 01 	lds	r24, 0x0156
    12c2:	84 ff       	sbrs	r24, 4
    12c4:	09 c0       	rjmp	.+18     	; 0x12d8 <__vector_10+0xbe>
			stopwatches.watch5++;
    12c6:	80 91 5f 01 	lds	r24, 0x015F
    12ca:	90 91 60 01 	lds	r25, 0x0160
    12ce:	01 96       	adiw	r24, 0x01	; 1
    12d0:	90 93 60 01 	sts	0x0160, r25
    12d4:	80 93 5f 01 	sts	0x015F, r24
		if(stopwatches.watches & STOPWATCH6)
    12d8:	80 91 56 01 	lds	r24, 0x0156
    12dc:	85 ff       	sbrs	r24, 5
    12de:	09 c0       	rjmp	.+18     	; 0x12f2 <__vector_10+0xd8>
			stopwatches.watch6++;
    12e0:	80 91 61 01 	lds	r24, 0x0161
    12e4:	90 91 62 01 	lds	r25, 0x0162
    12e8:	01 96       	adiw	r24, 0x01	; 1
    12ea:	90 93 62 01 	sts	0x0162, r25
    12ee:	80 93 61 01 	sts	0x0161, r24
		if(stopwatches.watches & STOPWATCH7)
    12f2:	80 91 56 01 	lds	r24, 0x0156
    12f6:	86 ff       	sbrs	r24, 6
    12f8:	09 c0       	rjmp	.+18     	; 0x130c <__vector_10+0xf2>
			stopwatches.watch7++;
    12fa:	80 91 63 01 	lds	r24, 0x0163
    12fe:	90 91 64 01 	lds	r25, 0x0164
    1302:	01 96       	adiw	r24, 0x01	; 1
    1304:	90 93 64 01 	sts	0x0164, r25
    1308:	80 93 63 01 	sts	0x0163, r24
		if(stopwatches.watches & STOPWATCH8)
    130c:	80 91 56 01 	lds	r24, 0x0156
    1310:	87 ff       	sbrs	r24, 7
    1312:	09 c0       	rjmp	.+18     	; 0x1326 <__vector_10+0x10c>
			stopwatches.watch8++;
    1314:	80 91 65 01 	lds	r24, 0x0165
    1318:	90 91 66 01 	lds	r25, 0x0166
    131c:	01 96       	adiw	r24, 0x01	; 1
    131e:	90 93 66 01 	sts	0x0166, r25
    1322:	80 93 65 01 	sts	0x0165, r24

		// Sound generation timing:
		if(controlStatus.beep) {
    1326:	80 91 44 01 	lds	r24, 0x0144
    132a:	80 ff       	sbrs	r24, 0
    132c:	16 c0       	rjmp	.+44     	; 0x135a <__vector_10+0x140>
			if(sound_timer < 1) { // sound_timer * 1ms
    132e:	80 91 6a 01 	lds	r24, 0x016A
    1332:	90 91 6b 01 	lds	r25, 0x016B
    1336:	89 2b       	or	r24, r25
    1338:	39 f4       	brne	.+14     	; 0x1348 <__vector_10+0x12e>
				TCCR2 = 0;
    133a:	15 bc       	out	0x25, r1	; 37
				controlStatus.beep = false;
    133c:	80 91 44 01 	lds	r24, 0x0144
    1340:	8e 7f       	andi	r24, 0xFE	; 254
    1342:	80 93 44 01 	sts	0x0144, r24
    1346:	09 c0       	rjmp	.+18     	; 0x135a <__vector_10+0x140>
			}
			else
				sound_timer--;
    1348:	80 91 6a 01 	lds	r24, 0x016A
    134c:	90 91 6b 01 	lds	r25, 0x016B
    1350:	01 97       	sbiw	r24, 0x01	; 1
    1352:	90 93 6b 01 	sts	0x016B, r25
    1356:	80 93 6a 01 	sts	0x016A, r24
		}
		
		ms_timer = 0;
    135a:	10 92 69 01 	sts	0x0169, r1
	}
}
    135e:	9f 91       	pop	r25
    1360:	8f 91       	pop	r24
    1362:	0f 90       	pop	r0
    1364:	0f be       	out	0x3f, r0	; 63
    1366:	0f 90       	pop	r0
    1368:	1f 90       	pop	r1
    136a:	18 95       	reti

0000136c <beep>:
 * sounds when you need to do other things at the same
 * time... 
 */
void beep(uint8_t pitch, uint16_t time)
{
	controlStatus.beep = true;
    136c:	90 91 44 01 	lds	r25, 0x0144
    1370:	91 60       	ori	r25, 0x01	; 1
    1372:	90 93 44 01 	sts	0x0144, r25
	sound_timer = time;
    1376:	70 93 6b 01 	sts	0x016B, r23
    137a:	60 93 6a 01 	sts	0x016A, r22
	OCR2 = 255-pitch;
    137e:	80 95       	com	r24
    1380:	83 bd       	out	0x23, r24	; 35
	TCCR2 =  (1 << WGM21) | (1 << COM20) | (1 << CS22) | (1 << CS21);
    1382:	8e e1       	ldi	r24, 0x1E	; 30
    1384:	85 bd       	out	0x25, r24	; 37
}
    1386:	08 95       	ret

00001388 <setBeeperPitch>:
 * would sound bad if the beeper turns of for a very short time
 * in between - such as alarm tones or special melodies etc. 
 */
void setBeeperPitch(uint8_t pitch)
{
	controlStatus.beep = false;
    1388:	90 91 44 01 	lds	r25, 0x0144
    138c:	9e 7f       	andi	r25, 0xFE	; 254
    138e:	90 93 44 01 	sts	0x0144, r25
	OCR2 = 255-pitch;
    1392:	98 2f       	mov	r25, r24
    1394:	90 95       	com	r25
    1396:	93 bd       	out	0x23, r25	; 35
	if(pitch) 
    1398:	88 23       	and	r24, r24
    139a:	19 f0       	breq	.+6      	; 0x13a2 <setBeeperPitch+0x1a>
		TCCR2 =  (1 << WGM21) | (1 << COM20) | (1 << CS22) | (1 << CS21);	
    139c:	8e e1       	ldi	r24, 0x1E	; 30
    139e:	85 bd       	out	0x25, r24	; 37
    13a0:	08 95       	ret
	else 
		TCCR2 = 0;
    13a2:	15 bc       	out	0x25, r1	; 37
    13a4:	08 95       	ret

000013a6 <sleep>:
 *		// The maximum delay is:
 *		sleep(255); // delay 255 * 100us = 25500us = 25.5ms
 */
void sleep(uint8_t time)
{
	delay_timer = 0;
    13a6:	10 92 68 01 	sts	0x0168, r1
	while (delay_timer <= time+1);
    13aa:	28 2f       	mov	r18, r24
    13ac:	30 e0       	ldi	r19, 0x00	; 0
    13ae:	2f 5f       	subi	r18, 0xFF	; 255
    13b0:	3f 4f       	sbci	r19, 0xFF	; 255
    13b2:	80 91 68 01 	lds	r24, 0x0168
    13b6:	90 e0       	ldi	r25, 0x00	; 0
    13b8:	28 17       	cp	r18, r24
    13ba:	39 07       	cpc	r19, r25
    13bc:	d4 f7       	brge	.-12     	; 0x13b2 <sleep+0xc>
}
    13be:	08 95       	ret

000013c0 <mSleep>:
 *      mSleep(100); // delay 100 * 1ms = 100ms = 0.1s
 *		mSleep(1000); // delay 1000 * 1ms = 1000ms = 1s
 *
 */
void mSleep(uint16_t time)
{
    13c0:	9c 01       	movw	r18, r24
    13c2:	09 c0       	rjmp	.+18     	; 0x13d6 <mSleep+0x16>
 *		// The maximum delay is:
 *		sleep(255); // delay 255 * 100us = 25500us = 25.5ms
 */
void sleep(uint8_t time)
{
	delay_timer = 0;
    13c4:	10 92 68 01 	sts	0x0168, r1
	while (delay_timer <= time+1);
    13c8:	80 91 68 01 	lds	r24, 0x0168
    13cc:	90 e0       	ldi	r25, 0x00	; 0
    13ce:	0c 97       	sbiw	r24, 0x0c	; 12
    13d0:	dc f3       	brlt	.-10     	; 0x13c8 <mSleep+0x8>
    13d2:	21 50       	subi	r18, 0x01	; 1
    13d4:	30 40       	sbci	r19, 0x00	; 0
 *		mSleep(1000); // delay 1000 * 1ms = 1000ms = 1s
 *
 */
void mSleep(uint16_t time)
{
	while (time--) sleep(10);
    13d6:	21 15       	cp	r18, r1
    13d8:	31 05       	cpc	r19, r1
    13da:	a1 f7       	brne	.-24     	; 0x13c4 <mSleep+0x4>
}
    13dc:	08 95       	ret

000013de <delayCycles>:
 *
 * Example:
 * 	delayCycles(1000); // Delays for *about* 1000 instruction cycles
 */
void delayCycles(uint16_t dly)
{
    13de:	02 c0       	rjmp	.+4      	; 0x13e4 <delayCycles+0x6>
	while(dly--) nop();
    13e0:	00 00       	nop
    13e2:	01 97       	sbiw	r24, 0x01	; 1
    13e4:	00 97       	sbiw	r24, 0x00	; 0
    13e6:	e1 f7       	brne	.-8      	; 0x13e0 <delayCycles+0x2>
}
    13e8:	08 95       	ret

000013ea <initRP6Control>:
 *			}
 *
 */
void initRP6Control(void)
{
	portInit();		// Setup port directions and initial values.
    13ea:	1b ba       	out	0x1b, r1	; 27
    13ec:	87 e0       	ldi	r24, 0x07	; 7
    13ee:	88 bb       	out	0x18, r24	; 24
    13f0:	8c ef       	ldi	r24, 0xFC	; 252
    13f2:	85 bb       	out	0x15, r24	; 21
    13f4:	81 e6       	ldi	r24, 0x61	; 97
    13f6:	82 bb       	out	0x12, r24	; 18
    13f8:	1a ba       	out	0x1a, r1	; 26
    13fa:	8b eb       	ldi	r24, 0xBB	; 187
    13fc:	87 bb       	out	0x17, r24	; 23
    13fe:	14 ba       	out	0x14, r1	; 20
    1400:	82 e9       	ldi	r24, 0x92	; 146
    1402:	81 bb       	out	0x11, r24	; 17
					// This is the most important step!

	cli();			// Disable global interrupts.
    1404:	f8 94       	cli

	// UART:
	UBRRH = UBRR_BAUD_LOW >> 8;	// Setup UART: Baud is Low Speed
    1406:	10 bc       	out	0x20, r1	; 32
	UBRRL = (uint8_t) UBRR_BAUD_LOW;
    1408:	89 e1       	ldi	r24, 0x19	; 25
    140a:	89 b9       	out	0x09, r24	; 9
	UCSRA = 0x00;
    140c:	1b b8       	out	0x0b, r1	; 11
    UCSRC = (1<<URSEL)|(1<<UCSZ1)|(1<<UCSZ0);
    140e:	86 e8       	ldi	r24, 0x86	; 134
    1410:	80 bd       	out	0x20, r24	; 32
    UCSRB = (1 << TXEN) | (1 << RXEN) | (1 << RXCIE);
    1412:	88 e9       	ldi	r24, 0x98	; 152
    1414:	8a b9       	out	0x0a, r24	; 10
	
	// Initialize ADC:
	ADMUX = 0; //external reference 
    1416:	17 b8       	out	0x07, r1	; 7
	ADCSRA = (0<<ADIE) | (0<<ADEN) | (1<<ADPS2) | (1<<ADPS1) | (1<<ADIF);
    1418:	86 e1       	ldi	r24, 0x16	; 22
    141a:	86 b9       	out	0x06, r24	; 6
	SFIOR = 0;
    141c:	10 be       	out	0x30, r1	; 48

	// Initialize External interrupts - all disabled:
	MCUCR = (1 << ISC11) | (1 << ISC10) | (1 << ISC01) | (1 << ISC00);
    141e:	8f e0       	ldi	r24, 0x0F	; 15
    1420:	85 bf       	out	0x35, r24	; 53
	GICR = (0 << INT2) | (0 << INT1) | (0 << INT0);
    1422:	1b be       	out	0x3b, r1	; 59
	MCUCSR = (0 << ISC2);
    1424:	14 be       	out	0x34, r1	; 52
	
	
	// 10kHz Timer 0:
	TCCR0 =   (0 << WGM00) 
    1426:	8a e0       	ldi	r24, 0x0A	; 10
    1428:	83 bf       	out	0x33, r24	; 51
			| (0 << COM00) 
			| (0 << COM01) 
			| (0 << CS02)  
			| (1 << CS01) 
			| (0 << CS00);
	OCR0  = 199;
    142a:	87 ec       	ldi	r24, 0xC7	; 199
    142c:	8c bf       	out	0x3c, r24	; 60
/*
	Timer 1 is free for your application!
*/

	// Timer 2 - used for beeper:
	TCCR2 =  0; 
    142e:	15 bc       	out	0x25, r1	; 37
	OCR2  = 0xFF; 
    1430:	8f ef       	ldi	r24, 0xFF	; 255
    1432:	83 bd       	out	0x23, r24	; 35

	// Enable timer interrupts:
	TIMSK =   (1 << OCIE0); 
    1434:	82 e0       	ldi	r24, 0x02	; 2
    1436:	89 bf       	out	0x39, r24	; 57

	// SPI Master (SPI Mode 0, SCK Frequency is F_CPU/2, which means it is 8MHz 
	// on the RP6 CONTROL M32...):
	SPCR =    (0<<SPIE) 
    1438:	80 e5       	ldi	r24, 0x50	; 80
    143a:	8d b9       	out	0x0d, r24	; 13
			| (1<<MSTR) 
			| (0<<SPR0) 
			| (0<<SPR1) 
			| (0<<CPOL) 
			| (0<<CPHA);  
	SPSR = (1<<SPI2X);
    143c:	81 e0       	ldi	r24, 0x01	; 1
    143e:	8e b9       	out	0x0e, r24	; 14
	
	sei(); // Enable Global Interrupts
    1440:	78 94       	sei
}
    1442:	08 95       	ret

00001444 <writeIntegerLCD>:
 *			writeInteger(1024,DEC);  	// Decimal
 *			writeInteger(511,OCT);		// Ocal
 *			writeInteger(0b11010111,BIN); // Binary
 */
void writeIntegerLCD(int16_t number, uint8_t base)
{
    1444:	0f 93       	push	r16
    1446:	1f 93       	push	r17
    1448:	46 2f       	mov	r20, r22
	itoa(number, &lcd_tmp_buffer[0], base);
    144a:	05 e4       	ldi	r16, 0x45	; 69
    144c:	11 e0       	ldi	r17, 0x01	; 1
    144e:	b8 01       	movw	r22, r16
    1450:	50 e0       	ldi	r21, 0x00	; 0
    1452:	0e 94 da 15 	call	0x2bb4	; 0x2bb4 <itoa>
	writeStringLCD(&lcd_tmp_buffer[0]);
    1456:	c8 01       	movw	r24, r16
    1458:	0e 94 42 08 	call	0x1084	; 0x1084 <writeStringLCD>
}
    145c:	1f 91       	pop	r17
    145e:	0f 91       	pop	r16
    1460:	08 95       	ret

00001462 <writeIntegerLengthLCD>:
 *			writeIntegerLength(511,OCT,4);		// Ocal
 *			writeIntegerLength(0b11010111,BIN,8); // Binary
 */
 
void writeIntegerLengthLCD(int16_t number, uint8_t base, uint8_t length)
{
    1462:	ef 92       	push	r14
    1464:	ff 92       	push	r15
    1466:	0f 93       	push	r16
    1468:	1f 93       	push	r17
    146a:	df 93       	push	r29
    146c:	cf 93       	push	r28
    146e:	cd b7       	in	r28, 0x3d	; 61
    1470:	de b7       	in	r29, 0x3e	; 62
    1472:	61 97       	sbiw	r28, 0x11	; 17
    1474:	0f b6       	in	r0, 0x3f	; 63
    1476:	f8 94       	cli
    1478:	de bf       	out	0x3e, r29	; 62
    147a:	0f be       	out	0x3f, r0	; 63
    147c:	cd bf       	out	0x3d, r28	; 61
    147e:	26 2f       	mov	r18, r22
    1480:	04 2f       	mov	r16, r20
	char buffer[17];
	itoa(number, &buffer[0], base);
    1482:	7e 01       	movw	r14, r28
    1484:	08 94       	sec
    1486:	e1 1c       	adc	r14, r1
    1488:	f1 1c       	adc	r15, r1
    148a:	b7 01       	movw	r22, r14
    148c:	42 2f       	mov	r20, r18
    148e:	50 e0       	ldi	r21, 0x00	; 0
    1490:	0e 94 da 15 	call	0x2bb4	; 0x2bb4 <itoa>
	int8_t cnt = length - strlen(buffer);
    1494:	f7 01       	movw	r30, r14
    1496:	01 90       	ld	r0, Z+
    1498:	00 20       	and	r0, r0
    149a:	e9 f7       	brne	.-6      	; 0x1496 <writeIntegerLengthLCD+0x34>
    149c:	31 97       	sbiw	r30, 0x01	; 1
    149e:	ee 19       	sub	r30, r14
    14a0:	ff 09       	sbc	r31, r15
    14a2:	10 2f       	mov	r17, r16
    14a4:	1e 1b       	sub	r17, r30
	if(cnt > 0) {
    14a6:	11 16       	cp	r1, r17
    14a8:	5c f4       	brge	.+22     	; 0x14c0 <writeIntegerLengthLCD+0x5e>
		for(; cnt > 0; cnt--, writeCharLCD('0'));
    14aa:	11 50       	subi	r17, 0x01	; 1
    14ac:	80 e3       	ldi	r24, 0x30	; 48
    14ae:	0e 94 27 08 	call	0x104e	; 0x104e <writeCharLCD>
    14b2:	11 23       	and	r17, r17
    14b4:	d1 f7       	brne	.-12     	; 0x14aa <writeIntegerLengthLCD+0x48>
		writeStringLCD(&buffer[0]);
    14b6:	ce 01       	movw	r24, r28
    14b8:	01 96       	adiw	r24, 0x01	; 1
    14ba:	0e 94 42 08 	call	0x1084	; 0x1084 <writeStringLCD>
    14be:	06 c0       	rjmp	.+12     	; 0x14cc <writeIntegerLengthLCD+0x6a>
	}
	else 
		writeStringLengthLCD(&buffer[0],length,-cnt);
    14c0:	11 95       	neg	r17
    14c2:	c7 01       	movw	r24, r14
    14c4:	60 2f       	mov	r22, r16
    14c6:	41 2f       	mov	r20, r17
    14c8:	0e 94 4f 08 	call	0x109e	; 0x109e <writeStringLengthLCD>
}
    14cc:	61 96       	adiw	r28, 0x11	; 17
    14ce:	0f b6       	in	r0, 0x3f	; 63
    14d0:	f8 94       	cli
    14d2:	de bf       	out	0x3e, r29	; 62
    14d4:	0f be       	out	0x3f, r0	; 63
    14d6:	cd bf       	out	0x3d, r28	; 61
    14d8:	cf 91       	pop	r28
    14da:	df 91       	pop	r29
    14dc:	1f 91       	pop	r17
    14de:	0f 91       	pop	r16
    14e0:	ff 90       	pop	r15
    14e2:	ef 90       	pop	r14
    14e4:	08 95       	ret

000014e6 <writeChar>:
 *			00123
 *
 */
void writeChar(char ch)
{
    while (!(UCSRA & (1<<UDRE)));
    14e6:	5d 9b       	sbis	0x0b, 5	; 11
    14e8:	fe cf       	rjmp	.-4      	; 0x14e6 <writeChar>
    UDR = (uint8_t)ch;
    14ea:	8c b9       	out	0x0c, r24	; 12
}
    14ec:	08 95       	ret

000014ee <writeString>:
 *
 *			writeString("RP6 Robot System\n");
 *
 */
void writeString(char *string)
{
    14ee:	fc 01       	movw	r30, r24
    14f0:	04 c0       	rjmp	.+8      	; 0x14fa <writeString+0xc>
 *			00123
 *
 */
void writeChar(char ch)
{
    while (!(UCSRA & (1<<UDRE)));
    14f2:	5d 9b       	sbis	0x0b, 5	; 11
    14f4:	fe cf       	rjmp	.-4      	; 0x14f2 <writeString+0x4>
 *
 */
void writeString(char *string)
{
	while(*string)
		writeChar(*string++);
    14f6:	31 96       	adiw	r30, 0x01	; 1
 *
 */
void writeChar(char ch)
{
    while (!(UCSRA & (1<<UDRE)));
    UDR = (uint8_t)ch;
    14f8:	8c b9       	out	0x0c, r24	; 12
 *			writeString("RP6 Robot System\n");
 *
 */
void writeString(char *string)
{
	while(*string)
    14fa:	80 81       	ld	r24, Z
    14fc:	88 23       	and	r24, r24
    14fe:	c9 f7       	brne	.-14     	; 0x14f2 <writeString+0x4>
		writeChar(*string++);
}
    1500:	08 95       	ret

00001502 <writeNStringP>:
 *			// you can simply write:
 *			writeString_P("RP6 Robot System\n");
 *
 */
void writeNStringP(const char *pstring)
{
    1502:	03 c0       	rjmp	.+6      	; 0x150a <writeNStringP+0x8>
 *			00123
 *
 */
void writeChar(char ch)
{
    while (!(UCSRA & (1<<UDRE)));
    1504:	5d 9b       	sbis	0x0b, 5	; 11
    1506:	fe cf       	rjmp	.-4      	; 0x1504 <writeNStringP+0x2>
    UDR = (uint8_t)ch;
    1508:	2c b9       	out	0x0c, r18	; 12
    150a:	fc 01       	movw	r30, r24
 *
 */
void writeNStringP(const char *pstring)
{
    uint8_t c;
    for (;(c = pgm_read_byte_near(pstring++));writeChar(c));
    150c:	01 96       	adiw	r24, 0x01	; 1
    150e:	24 91       	lpm	r18, Z+
    1510:	22 23       	and	r18, r18
    1512:	c1 f7       	brne	.-16     	; 0x1504 <writeNStringP+0x2>
}
    1514:	08 95       	ret

00001516 <writeStringLength>:
 *			// No matter if the specified length is 40 characters!
 *
 */
void writeStringLength(char *string, uint8_t length, uint8_t offset)
{
	for(string = &string[offset]; *string && length; length--)
    1516:	fc 01       	movw	r30, r24
    1518:	e4 0f       	add	r30, r20
    151a:	f1 1d       	adc	r31, r1
    151c:	05 c0       	rjmp	.+10     	; 0x1528 <writeStringLength+0x12>
 *			00123
 *
 */
void writeChar(char ch)
{
    while (!(UCSRA & (1<<UDRE)));
    151e:	5d 9b       	sbis	0x0b, 5	; 11
    1520:	fe cf       	rjmp	.-4      	; 0x151e <writeStringLength+0x8>
 *
 */
void writeStringLength(char *string, uint8_t length, uint8_t offset)
{
	for(string = &string[offset]; *string && length; length--)
		writeChar(*string++);
    1522:	31 96       	adiw	r30, 0x01	; 1
 *
 */
void writeChar(char ch)
{
    while (!(UCSRA & (1<<UDRE)));
    UDR = (uint8_t)ch;
    1524:	8c b9       	out	0x0c, r24	; 12
 *			// No matter if the specified length is 40 characters!
 *
 */
void writeStringLength(char *string, uint8_t length, uint8_t offset)
{
	for(string = &string[offset]; *string && length; length--)
    1526:	61 50       	subi	r22, 0x01	; 1
    1528:	80 81       	ld	r24, Z
    152a:	88 23       	and	r24, r24
    152c:	11 f0       	breq	.+4      	; 0x1532 <writeStringLength+0x1c>
    152e:	66 23       	and	r22, r22
    1530:	b1 f7       	brne	.-20     	; 0x151e <writeStringLength+0x8>
    1532:	08 95       	ret

00001534 <__vector_13>:
/**
 * UART receive ISR.
 * Handles reception to circular buffer.
 */
ISR(USART_RXC_vect)
{	
    1534:	1f 92       	push	r1
    1536:	0f 92       	push	r0
    1538:	0f b6       	in	r0, 0x3f	; 63
    153a:	0f 92       	push	r0
    153c:	11 24       	eor	r1, r1
    153e:	2f 93       	push	r18
    1540:	8f 93       	push	r24
    1542:	9f 93       	push	r25
    1544:	ef 93       	push	r30
    1546:	ff 93       	push	r31
	static volatile uint8_t dummy;
	if(((uint8_t)(write_size - read_size)) < UART_RECEIVE_BUFFER_SIZE) {
    1548:	20 91 8f 00 	lds	r18, 0x008F
    154c:	80 91 8e 00 	lds	r24, 0x008E
    1550:	92 2f       	mov	r25, r18
    1552:	98 1b       	sub	r25, r24
    1554:	90 32       	cpi	r25, 0x20	; 32
    1556:	a8 f4       	brcc	.+42     	; 0x1582 <__vector_13+0x4e>
		uart_receive_buffer[write_pos++] = UDR;
    1558:	80 91 8d 00 	lds	r24, 0x008D
    155c:	e8 2f       	mov	r30, r24
    155e:	f0 e0       	ldi	r31, 0x00	; 0
    1560:	9c b1       	in	r25, 0x0c	; 12
    1562:	e3 59       	subi	r30, 0x93	; 147
    1564:	fe 4f       	sbci	r31, 0xFE	; 254
    1566:	90 83       	st	Z, r25
    1568:	8f 5f       	subi	r24, 0xFF	; 255
    156a:	80 93 8d 00 	sts	0x008D, r24
		write_size++;
    156e:	2f 5f       	subi	r18, 0xFF	; 255
    1570:	20 93 8f 00 	sts	0x008F, r18
		if(write_pos > UART_RECEIVE_BUFFER_SIZE) 
    1574:	81 32       	cpi	r24, 0x21	; 33
    1576:	10 f0       	brcs	.+4      	; 0x157c <__vector_13+0x48>
			write_pos = 0;
    1578:	10 92 8d 00 	sts	0x008D, r1
		uart_status = UART_BUFFER_OK;
    157c:	10 92 6c 01 	sts	0x016C, r1
    1580:	06 c0       	rjmp	.+12     	; 0x158e <__vector_13+0x5a>
	}
	else {	
		dummy = UDR;
    1582:	8c b1       	in	r24, 0x0c	; 12
    1584:	80 93 91 00 	sts	0x0091, r24
		uart_status = UART_BUFFER_OVERFLOW;
    1588:	81 e0       	ldi	r24, 0x01	; 1
    158a:	80 93 6c 01 	sts	0x016C, r24
	}
}
    158e:	ff 91       	pop	r31
    1590:	ef 91       	pop	r30
    1592:	9f 91       	pop	r25
    1594:	8f 91       	pop	r24
    1596:	2f 91       	pop	r18
    1598:	0f 90       	pop	r0
    159a:	0f be       	out	0x3f, r0	; 63
    159c:	0f 90       	pop	r0
    159e:	1f 90       	pop	r1
    15a0:	18 95       	reti

000015a2 <readChar>:
 * // [...]
 *
 */
char readChar(void)
{
	uart_status = UART_BUFFER_OK;
    15a2:	10 92 6c 01 	sts	0x016C, r1
	if(((uint8_t)(write_size - read_size)) > 0) {
    15a6:	90 91 8e 00 	lds	r25, 0x008E
    15aa:	80 91 8f 00 	lds	r24, 0x008F
    15ae:	89 17       	cp	r24, r25
    15b0:	11 f4       	brne	.+4      	; 0x15b6 <readChar+0x14>
    15b2:	e0 e0       	ldi	r30, 0x00	; 0
    15b4:	13 c0       	rjmp	.+38     	; 0x15dc <readChar+0x3a>
		read_size++;
    15b6:	9f 5f       	subi	r25, 0xFF	; 255
    15b8:	90 93 8e 00 	sts	0x008E, r25
		if(read_pos > UART_RECEIVE_BUFFER_SIZE) 
    15bc:	80 91 8c 00 	lds	r24, 0x008C
    15c0:	81 32       	cpi	r24, 0x21	; 33
    15c2:	10 f0       	brcs	.+4      	; 0x15c8 <readChar+0x26>
			read_pos = 0;
    15c4:	10 92 8c 00 	sts	0x008C, r1
		return uart_receive_buffer[read_pos++];
    15c8:	80 91 8c 00 	lds	r24, 0x008C
    15cc:	e8 2f       	mov	r30, r24
    15ce:	f0 e0       	ldi	r31, 0x00	; 0
    15d0:	e3 59       	subi	r30, 0x93	; 147
    15d2:	fe 4f       	sbci	r31, 0xFE	; 254
    15d4:	e0 81       	ld	r30, Z
    15d6:	8f 5f       	subi	r24, 0xFF	; 255
    15d8:	80 93 8c 00 	sts	0x008C, r24
	}
	return 0;
}
    15dc:	8e 2f       	mov	r24, r30
    15de:	08 95       	ret

000015e0 <readChars>:
 * Just in case that there were fewer chars in the buffer...
 */
uint8_t readChars(char *buf, uint8_t numberOfChars)
{
   uint8_t i = 0;
   uart_status = UART_BUFFER_OK;
    15e0:	10 92 6c 01 	sts	0x016C, r1
    15e4:	dc 01       	movw	r26, r24
    15e6:	20 e0       	ldi	r18, 0x00	; 0
    15e8:	14 c0       	rjmp	.+40     	; 0x1612 <readChars+0x32>
   while(((uint8_t)(write_size - read_size))  > 0 && i < numberOfChars) {
      read_size++;
    15ea:	9f 5f       	subi	r25, 0xFF	; 255
    15ec:	90 93 8e 00 	sts	0x008E, r25
      buf[i++] = uart_receive_buffer[read_pos++];
    15f0:	80 91 8c 00 	lds	r24, 0x008C
    15f4:	e8 2f       	mov	r30, r24
    15f6:	f0 e0       	ldi	r31, 0x00	; 0
    15f8:	e3 59       	subi	r30, 0x93	; 147
    15fa:	fe 4f       	sbci	r31, 0xFE	; 254
    15fc:	90 81       	ld	r25, Z
    15fe:	9c 93       	st	X, r25
    1600:	8f 5f       	subi	r24, 0xFF	; 255
    1602:	80 93 8c 00 	sts	0x008C, r24
      if(read_pos > UART_RECEIVE_BUFFER_SIZE)
    1606:	81 32       	cpi	r24, 0x21	; 33
    1608:	10 f0       	brcs	.+4      	; 0x160e <readChars+0x2e>
         read_pos = 0;
    160a:	10 92 8c 00 	sts	0x008C, r1
{
   uint8_t i = 0;
   uart_status = UART_BUFFER_OK;
   while(((uint8_t)(write_size - read_size))  > 0 && i < numberOfChars) {
      read_size++;
      buf[i++] = uart_receive_buffer[read_pos++];
    160e:	2f 5f       	subi	r18, 0xFF	; 255
    1610:	11 96       	adiw	r26, 0x01	; 1
 */
uint8_t readChars(char *buf, uint8_t numberOfChars)
{
   uint8_t i = 0;
   uart_status = UART_BUFFER_OK;
   while(((uint8_t)(write_size - read_size))  > 0 && i < numberOfChars) {
    1612:	90 91 8e 00 	lds	r25, 0x008E
    1616:	80 91 8f 00 	lds	r24, 0x008F
    161a:	89 17       	cp	r24, r25
    161c:	11 f0       	breq	.+4      	; 0x1622 <readChars+0x42>
    161e:	26 17       	cp	r18, r22
    1620:	20 f3       	brcs	.-56     	; 0x15ea <readChars+0xa>
      buf[i++] = uart_receive_buffer[read_pos++];
      if(read_pos > UART_RECEIVE_BUFFER_SIZE)
         read_pos = 0;
   }
   return i;
} 
    1622:	82 2f       	mov	r24, r18
    1624:	08 95       	ret

00001626 <getBufferLength>:
 *
 * Example:
 * s. readChar function above!
 */
uint8_t getBufferLength(void)
{
    1626:	80 91 8f 00 	lds	r24, 0x008F
    162a:	90 91 8e 00 	lds	r25, 0x008E
	return (((uint8_t)(write_size - read_size)));
}
    162e:	89 1b       	sub	r24, r25
    1630:	08 95       	ret

00001632 <clearReceptionBuffer>:
 * interrupt for a short period of time. 
 */
void clearReceptionBuffer(void)
{
	static uint8_t dummy;
	UCSRB &= ~(1 << RXCIE); // disable UART RX Interrupt
    1632:	57 98       	cbi	0x0a, 7	; 10
	dummy = UDR;
    1634:	8c b1       	in	r24, 0x0c	; 12
    1636:	80 93 90 00 	sts	0x0090, r24
	read_pos = 0;
    163a:	10 92 8c 00 	sts	0x008C, r1
	write_pos = 0; 
    163e:	10 92 8d 00 	sts	0x008D, r1
	read_size = 0;
    1642:	10 92 8e 00 	sts	0x008E, r1
	write_size = 0;
    1646:	10 92 8f 00 	sts	0x008F, r1
	uart_status = UART_BUFFER_OK;
    164a:	10 92 6c 01 	sts	0x016C, r1
	UCSRB |= (1 << RXCIE); // enable Interrupt again
    164e:	57 9a       	sbi	0x0a, 7	; 10
}
    1650:	08 95       	ret

00001652 <writeInteger>:
 *			writeInteger(1024,DEC);  	// Decimal
 *			writeInteger(044,OCT);		// Ocal
 *			writeInteger(0b11010111,BIN); // Binary
 */
void writeInteger(int16_t number, uint8_t base)
{
    1652:	0f 93       	push	r16
    1654:	1f 93       	push	r17
    1656:	df 93       	push	r29
    1658:	cf 93       	push	r28
    165a:	cd b7       	in	r28, 0x3d	; 61
    165c:	de b7       	in	r29, 0x3e	; 62
    165e:	61 97       	sbiw	r28, 0x11	; 17
    1660:	0f b6       	in	r0, 0x3f	; 63
    1662:	f8 94       	cli
    1664:	de bf       	out	0x3e, r29	; 62
    1666:	0f be       	out	0x3f, r0	; 63
    1668:	cd bf       	out	0x3d, r28	; 61
    166a:	46 2f       	mov	r20, r22
	char buffer[17];
	itoa(number, &buffer[0], base);
    166c:	8e 01       	movw	r16, r28
    166e:	0f 5f       	subi	r16, 0xFF	; 255
    1670:	1f 4f       	sbci	r17, 0xFF	; 255
    1672:	b8 01       	movw	r22, r16
    1674:	50 e0       	ldi	r21, 0x00	; 0
    1676:	0e 94 da 15 	call	0x2bb4	; 0x2bb4 <itoa>
	writeString(&buffer[0]);
    167a:	c8 01       	movw	r24, r16
    167c:	0e 94 77 0a 	call	0x14ee	; 0x14ee <writeString>
}
    1680:	61 96       	adiw	r28, 0x11	; 17
    1682:	0f b6       	in	r0, 0x3f	; 63
    1684:	f8 94       	cli
    1686:	de bf       	out	0x3e, r29	; 62
    1688:	0f be       	out	0x3f, r0	; 63
    168a:	cd bf       	out	0x3d, r28	; 61
    168c:	cf 91       	pop	r28
    168e:	df 91       	pop	r29
    1690:	1f 91       	pop	r17
    1692:	0f 91       	pop	r16
    1694:	08 95       	ret

00001696 <writeIntegerLength>:
 *			writeIntegerLength(1024,DEC,6);  	// Decimal
 *			writeIntegerLength(044,OCT,4);		// Ocal
 *			writeIntegerLength(0b11010111,BIN,8); // Binary
 */
void writeIntegerLength(int16_t number, uint8_t base, uint8_t length)
{
    1696:	ff 92       	push	r15
    1698:	0f 93       	push	r16
    169a:	1f 93       	push	r17
    169c:	df 93       	push	r29
    169e:	cf 93       	push	r28
    16a0:	cd b7       	in	r28, 0x3d	; 61
    16a2:	de b7       	in	r29, 0x3e	; 62
    16a4:	61 97       	sbiw	r28, 0x11	; 17
    16a6:	0f b6       	in	r0, 0x3f	; 63
    16a8:	f8 94       	cli
    16aa:	de bf       	out	0x3e, r29	; 62
    16ac:	0f be       	out	0x3f, r0	; 63
    16ae:	cd bf       	out	0x3d, r28	; 61
    16b0:	26 2f       	mov	r18, r22
    16b2:	f4 2e       	mov	r15, r20
	char buffer[17];
	itoa(number, &buffer[0], base);
    16b4:	8e 01       	movw	r16, r28
    16b6:	0f 5f       	subi	r16, 0xFF	; 255
    16b8:	1f 4f       	sbci	r17, 0xFF	; 255
    16ba:	b8 01       	movw	r22, r16
    16bc:	42 2f       	mov	r20, r18
    16be:	50 e0       	ldi	r21, 0x00	; 0
    16c0:	0e 94 da 15 	call	0x2bb4	; 0x2bb4 <itoa>
	int8_t cnt = length - strlen(buffer);
    16c4:	f8 01       	movw	r30, r16
    16c6:	01 90       	ld	r0, Z+
    16c8:	00 20       	and	r0, r0
    16ca:	e9 f7       	brne	.-6      	; 0x16c6 <writeIntegerLength+0x30>
    16cc:	31 97       	sbiw	r30, 0x01	; 1
    16ce:	e0 1b       	sub	r30, r16
    16d0:	f1 0b       	sbc	r31, r17
    16d2:	4f 2d       	mov	r20, r15
    16d4:	4e 1b       	sub	r20, r30
	if(cnt > 0) {
    16d6:	14 16       	cp	r1, r20
    16d8:	64 f4       	brge	.+24     	; 0x16f2 <writeIntegerLength+0x5c>
 *
 */
void writeChar(char ch)
{
    while (!(UCSRA & (1<<UDRE)));
    UDR = (uint8_t)ch;
    16da:	80 e3       	ldi	r24, 0x30	; 48
{
	char buffer[17];
	itoa(number, &buffer[0], base);
	int8_t cnt = length - strlen(buffer);
	if(cnt > 0) {
		for(; cnt > 0; cnt--, writeChar('0'));
    16dc:	41 50       	subi	r20, 0x01	; 1
 *			00123
 *
 */
void writeChar(char ch)
{
    while (!(UCSRA & (1<<UDRE)));
    16de:	5d 9b       	sbis	0x0b, 5	; 11
    16e0:	fe cf       	rjmp	.-4      	; 0x16de <writeIntegerLength+0x48>
    UDR = (uint8_t)ch;
    16e2:	8c b9       	out	0x0c, r24	; 12
{
	char buffer[17];
	itoa(number, &buffer[0], base);
	int8_t cnt = length - strlen(buffer);
	if(cnt > 0) {
		for(; cnt > 0; cnt--, writeChar('0'));
    16e4:	44 23       	and	r20, r20
    16e6:	d1 f7       	brne	.-12     	; 0x16dc <writeIntegerLength+0x46>
		writeString(&buffer[0]);
    16e8:	ce 01       	movw	r24, r28
    16ea:	01 96       	adiw	r24, 0x01	; 1
    16ec:	0e 94 77 0a 	call	0x14ee	; 0x14ee <writeString>
    16f0:	05 c0       	rjmp	.+10     	; 0x16fc <writeIntegerLength+0x66>
	}
	else 
		writeStringLength(&buffer[0],length,-cnt);
    16f2:	41 95       	neg	r20
    16f4:	c8 01       	movw	r24, r16
    16f6:	6f 2d       	mov	r22, r15
    16f8:	0e 94 8b 0a 	call	0x1516	; 0x1516 <writeStringLength>
}
    16fc:	61 96       	adiw	r28, 0x11	; 17
    16fe:	0f b6       	in	r0, 0x3f	; 63
    1700:	f8 94       	cli
    1702:	de bf       	out	0x3e, r29	; 62
    1704:	0f be       	out	0x3f, r0	; 63
    1706:	cd bf       	out	0x3d, r28	; 61
    1708:	cf 91       	pop	r28
    170a:	df 91       	pop	r29
    170c:	1f 91       	pop	r17
    170e:	0f 91       	pop	r16
    1710:	ff 90       	pop	r15
    1712:	08 95       	ret

00001714 <__I2CTWI_initMaster>:
 * 							// but directly calculated with the formula in the
 *							// MEGA32 datasheet.
 */
void __I2CTWI_initMaster(uint8_t twi_bitrate)
{
	cli();
    1714:	f8 94       	cli
	TWBR = twi_bitrate;
    1716:	80 b9       	out	0x00, r24	; 0
	TWSR = 0x00;      // DO NOT USE PRESCALER! Otherwise you need to mask the
    1718:	11 b8       	out	0x01, r1	; 1
	TWDR = 0xFF;      // TWSR Prescaler bits everywhere TWSR is read!  	      
    171a:	8f ef       	ldi	r24, 0xFF	; 255
    171c:	83 b9       	out	0x03, r24	; 3
	TWCR = (1<<TWEN);
    171e:	84 e0       	ldi	r24, 0x04	; 4
    1720:	86 bf       	out	0x36, r24	; 54
	TWI_statusReg.lastTransOK = 1;
    1722:	80 91 92 00 	lds	r24, 0x0092
    1726:	81 60       	ori	r24, 0x01	; 1
    1728:	80 93 92 00 	sts	0x0092, r24
    sei();                      
    172c:	78 94       	sei
}
    172e:	08 95       	ret

00001730 <I2CTWI_requestedDataReady_DUMMY>:

/*****************************************************************************/
// TWI Event handlers
// These functions are used to receive Data or react on errors.

void I2CTWI_requestedDataReady_DUMMY(uint8_t requestID){}
    1730:	08 95       	ret

00001732 <I2CTWI_setRequestedDataReadyHandler>:
static void (*I2CTWI_requestedDataReadyHandler)(uint8_t) = I2CTWI_requestedDataReady_DUMMY;
void I2CTWI_setRequestedDataReadyHandler(void (*requestedDataReadyHandler)(uint8_t))
{
	I2CTWI_requestedDataReadyHandler = requestedDataReadyHandler;
    1732:	90 93 7b 00 	sts	0x007B, r25
    1736:	80 93 7a 00 	sts	0x007A, r24
}
    173a:	08 95       	ret

0000173c <I2CTWI_transmissionError_DUMMY>:

void I2CTWI_transmissionError_DUMMY(uint8_t requestID){}
    173c:	08 95       	ret

0000173e <I2CTWI_setTransmissionErrorHandler>:
static void (*I2CTWI_transmissionErrorHandler)(uint8_t) = I2CTWI_transmissionError_DUMMY;
void I2CTWI_setTransmissionErrorHandler(void (*transmissionErrorHandler)(uint8_t))
{
	I2CTWI_transmissionErrorHandler = transmissionErrorHandler;
    173e:	90 93 7d 00 	sts	0x007D, r25
    1742:	80 93 7c 00 	sts	0x007C, r24
}
    1746:	08 95       	ret

00001748 <I2CTWI_delay>:
/**
 * A small delay that is required between some transfers. Without this delay
 * the transmission may fail.
 */
void I2CTWI_delay(void)
{
    1748:	df 93       	push	r29
    174a:	cf 93       	push	r28
    174c:	0f 92       	push	r0
    174e:	cd b7       	in	r28, 0x3d	; 61
    1750:	de b7       	in	r29, 0x3e	; 62
	volatile uint8_t dly = 150;
    1752:	86 e9       	ldi	r24, 0x96	; 150
    1754:	89 83       	std	Y+1, r24	; 0x01
	while(dly--);
    1756:	89 81       	ldd	r24, Y+1	; 0x01
    1758:	81 50       	subi	r24, 0x01	; 1
    175a:	89 83       	std	Y+1, r24	; 0x01
    175c:	8f 5f       	subi	r24, 0xFF	; 255
    175e:	d9 f7       	brne	.-10     	; 0x1756 <I2CTWI_delay+0xe>
}
    1760:	0f 90       	pop	r0
    1762:	cf 91       	pop	r28
    1764:	df 91       	pop	r29
    1766:	08 95       	ret

00001768 <task_I2CTWI>:
/**
 * You have to call this functions frequently out of the
 * main loop. It calls the event handlers above automatically if data has been received.
 */
void task_I2CTWI(void)
{
    1768:	df 93       	push	r29
    176a:	cf 93       	push	r28
    176c:	0f 92       	push	r0
    176e:	cd b7       	in	r28, 0x3d	; 61
    1770:	de b7       	in	r29, 0x3e	; 62
	if (!I2CTWI_isBusy()) {
    1772:	06 b6       	in	r0, 0x36	; 54
    1774:	00 fc       	sbrc	r0, 0
    1776:	6e c0       	rjmp	.+220    	; 0x1854 <task_I2CTWI+0xec>
		if (TWI_statusReg.lastTransOK) {
    1778:	80 91 92 00 	lds	r24, 0x0092
    177c:	80 ff       	sbrs	r24, 0
    177e:	4e c0       	rjmp	.+156    	; 0x181c <task_I2CTWI+0xb4>
			if(TWI_operation) {
    1780:	80 91 99 00 	lds	r24, 0x0099
    1784:	88 23       	and	r24, r24
    1786:	09 f4       	brne	.+2      	; 0x178a <task_I2CTWI+0x22>
    1788:	65 c0       	rjmp	.+202    	; 0x1854 <task_I2CTWI+0xec>
				if(TWI_operation == I2CTWI_SEND_REGISTER) {
    178a:	81 30       	cpi	r24, 0x01	; 1
    178c:	c9 f4       	brne	.+50     	; 0x17c0 <task_I2CTWI+0x58>
 * A small delay that is required between some transfers. Without this delay
 * the transmission may fail.
 */
void I2CTWI_delay(void)
{
	volatile uint8_t dly = 150;
    178e:	86 e9       	ldi	r24, 0x96	; 150
    1790:	89 83       	std	Y+1, r24	; 0x01
	while(dly--);
    1792:	89 81       	ldd	r24, Y+1	; 0x01
    1794:	81 50       	subi	r24, 0x01	; 1
    1796:	89 83       	std	Y+1, r24	; 0x01
    1798:	8f 5f       	subi	r24, 0xFF	; 255
    179a:	d9 f7       	brne	.-10     	; 0x1792 <task_I2CTWI+0x2a>
	if (!I2CTWI_isBusy()) {
		if (TWI_statusReg.lastTransOK) {
			if(TWI_operation) {
				if(TWI_operation == I2CTWI_SEND_REGISTER) {
					I2CTWI_delay();
					TWI_msgSize = 2;
    179c:	92 e0       	ldi	r25, 0x02	; 2
    179e:	90 93 db 00 	sts	0x00DB, r25
					I2CTWI_buf[0] = I2CTWI_request_adr;
    17a2:	80 91 94 00 	lds	r24, 0x0094
    17a6:	80 93 9b 00 	sts	0x009B, r24
					I2CTWI_buf[1] = I2CTWI_request_reg;
    17aa:	80 91 95 00 	lds	r24, 0x0095
    17ae:	80 93 9c 00 	sts	0x009C, r24
					TWI_statusReg.all = 0;
    17b2:	10 92 92 00 	sts	0x0092, r1
					TWCR = (1<<TWEN)|(1<<TWIE)|(1<<TWINT)|(0<<TWEA)|(1<<TWSTA)|(0<<TWSTO);
    17b6:	85 ea       	ldi	r24, 0xA5	; 165
    17b8:	86 bf       	out	0x36, r24	; 54
					TWI_operation = I2CTWI_REQUEST_BYTES;
    17ba:	90 93 99 00 	sts	0x0099, r25
    17be:	4a c0       	rjmp	.+148    	; 0x1854 <task_I2CTWI+0xec>
				}
				else if (TWI_operation == I2CTWI_REQUEST_BYTES) {
    17c0:	82 30       	cpi	r24, 0x02	; 2
    17c2:	d9 f4       	brne	.+54     	; 0x17fa <task_I2CTWI+0x92>
 * A small delay that is required between some transfers. Without this delay
 * the transmission may fail.
 */
void I2CTWI_delay(void)
{
	volatile uint8_t dly = 150;
    17c4:	86 e9       	ldi	r24, 0x96	; 150
    17c6:	89 83       	std	Y+1, r24	; 0x01
	while(dly--);
    17c8:	89 81       	ldd	r24, Y+1	; 0x01
    17ca:	81 50       	subi	r24, 0x01	; 1
    17cc:	89 83       	std	Y+1, r24	; 0x01
    17ce:	8f 5f       	subi	r24, 0xFF	; 255
    17d0:	d9 f7       	brne	.-10     	; 0x17c8 <task_I2CTWI+0x60>
					TWCR = (1<<TWEN)|(1<<TWIE)|(1<<TWINT)|(0<<TWEA)|(1<<TWSTA)|(0<<TWSTO);
					TWI_operation = I2CTWI_REQUEST_BYTES;
				}
				else if (TWI_operation == I2CTWI_REQUEST_BYTES) {
					I2CTWI_delay();
					TWI_msgSize = I2CTWI_request_size + 1;
    17d2:	80 91 96 00 	lds	r24, 0x0096
    17d6:	8f 5f       	subi	r24, 0xFF	; 255
    17d8:	80 93 db 00 	sts	0x00DB, r24
					I2CTWI_request_adr = I2CTWI_request_adr | TWI_READ;
    17dc:	80 91 94 00 	lds	r24, 0x0094
    17e0:	81 60       	ori	r24, 0x01	; 1
    17e2:	80 93 94 00 	sts	0x0094, r24
					I2CTWI_buf[0]  = I2CTWI_request_adr | TWI_READ; 
    17e6:	80 93 9b 00 	sts	0x009B, r24
					TWI_statusReg.all = 0;
    17ea:	10 92 92 00 	sts	0x0092, r1
					TWCR = (1<<TWEN)|(1<<TWIE)|(1<<TWINT)|(0<<TWEA)|(1<<TWSTA)|(0<<TWSTO);	
    17ee:	85 ea       	ldi	r24, 0xA5	; 165
    17f0:	86 bf       	out	0x36, r24	; 54
					TWI_operation = I2CTWI_READ_BYTES_FROM_BUFFER;
    17f2:	83 e0       	ldi	r24, 0x03	; 3
    17f4:	80 93 99 00 	sts	0x0099, r24
    17f8:	2d c0       	rjmp	.+90     	; 0x1854 <task_I2CTWI+0xec>
				}
				else if (TWI_operation == I2CTWI_READ_BYTES_FROM_BUFFER) { 
    17fa:	83 30       	cpi	r24, 0x03	; 3
    17fc:	59 f5       	brne	.+86     	; 0x1854 <task_I2CTWI+0xec>
					TWI_operation = I2CTWI_NO_OPERATION;
    17fe:	10 92 99 00 	sts	0x0099, r1
					if(I2CTWI_requestID!=-1)
    1802:	80 91 97 00 	lds	r24, 0x0097
    1806:	90 91 98 00 	lds	r25, 0x0098
    180a:	2f ef       	ldi	r18, 0xFF	; 255
    180c:	8f 3f       	cpi	r24, 0xFF	; 255
    180e:	92 07       	cpc	r25, r18
    1810:	09 f1       	breq	.+66     	; 0x1854 <task_I2CTWI+0xec>
						I2CTWI_requestedDataReadyHandler(I2CTWI_requestID);
    1812:	e0 91 7a 00 	lds	r30, 0x007A
    1816:	f0 91 7b 00 	lds	r31, 0x007B
    181a:	1b c0       	rjmp	.+54     	; 0x1852 <task_I2CTWI+0xea>
 * This function returns the last TWI State / Error State. It waits until
 * TWI Module has completed last operation! 
 */
uint8_t I2CTWI_getState(void)
{
	while(I2CTWI_isBusy()); // Wait until TWI has completed the transmission.
    181c:	06 b6       	in	r0, 0x36	; 54
    181e:	00 fc       	sbrc	r0, 0
    1820:	fd cf       	rjmp	.-6      	; 0x181c <task_I2CTWI+0xb4>
	return (TWI_TWSR_state); // Return error state.
    1822:	90 91 93 00 	lds	r25, 0x0093
				}
			}
		}
		else {
			uint8_t errState = I2CTWI_getState();
			if(errState != 0) {
    1826:	99 23       	and	r25, r25
    1828:	a9 f0       	breq	.+42     	; 0x1854 <task_I2CTWI+0xec>
				TWI_operation = I2CTWI_NO_OPERATION;
    182a:	10 92 99 00 	sts	0x0099, r1
				TWI_statusReg.lastTransOK = 1;
    182e:	80 91 92 00 	lds	r24, 0x0092
    1832:	81 60       	ori	r24, 0x01	; 1
    1834:	80 93 92 00 	sts	0x0092, r24
				I2CTWI_request_adr = 0;
    1838:	10 92 94 00 	sts	0x0094, r1
				I2CTWI_requestID = 0;
    183c:	10 92 98 00 	sts	0x0098, r1
    1840:	10 92 97 00 	sts	0x0097, r1
				I2CTWI_request_size = 0;
    1844:	10 92 96 00 	sts	0x0096, r1
				I2CTWI_transmissionErrorHandler(errState);
    1848:	e0 91 7c 00 	lds	r30, 0x007C
    184c:	f0 91 7d 00 	lds	r31, 0x007D
    1850:	89 2f       	mov	r24, r25
    1852:	09 95       	icall
			}
		}
	}
}
    1854:	0f 90       	pop	r0
    1856:	cf 91       	pop	r28
    1858:	df 91       	pop	r29
    185a:	08 95       	ret

0000185c <I2CTWI_requestDataFromDevice>:
 * Requests a number of Bytes from the target device. You need to set a requestID 
 * to be able to identify the request after the data has been received and the 
 * "requestedDataReady" event handler is called.
 */
void I2CTWI_requestDataFromDevice(uint8_t targetAdr, uint8_t requestID, uint8_t numberOfBytes)
{	
    185c:	ff 92       	push	r15
    185e:	0f 93       	push	r16
    1860:	1f 93       	push	r17
    1862:	18 2f       	mov	r17, r24
    1864:	06 2f       	mov	r16, r22
    1866:	f4 2e       	mov	r15, r20
    1868:	02 c0       	rjmp	.+4      	; 0x186e <I2CTWI_requestDataFromDevice+0x12>
	while(I2CTWI_isBusy() || TWI_operation != I2CTWI_NO_OPERATION) task_I2CTWI();
    186a:	0e 94 b4 0b 	call	0x1768	; 0x1768 <task_I2CTWI>
    186e:	06 b6       	in	r0, 0x36	; 54
    1870:	00 fc       	sbrc	r0, 0
    1872:	fb cf       	rjmp	.-10     	; 0x186a <I2CTWI_requestDataFromDevice+0xe>
    1874:	80 91 99 00 	lds	r24, 0x0099
    1878:	88 23       	and	r24, r24
    187a:	b9 f7       	brne	.-18     	; 0x186a <I2CTWI_requestDataFromDevice+0xe>
	TWI_operation = I2CTWI_REQUEST_BYTES;
    187c:	82 e0       	ldi	r24, 0x02	; 2
    187e:	80 93 99 00 	sts	0x0099, r24
	I2CTWI_request_adr = targetAdr;
    1882:	10 93 94 00 	sts	0x0094, r17
	I2CTWI_requestID = (int16_t)requestID;
    1886:	00 93 97 00 	sts	0x0097, r16
    188a:	10 92 98 00 	sts	0x0098, r1
	I2CTWI_request_size = numberOfBytes;
    188e:	f0 92 96 00 	sts	0x0096, r15
}
    1892:	1f 91       	pop	r17
    1894:	0f 91       	pop	r16
    1896:	ff 90       	pop	r15
    1898:	08 95       	ret

0000189a <I2CTWI_requestRegisterFromDevice>:
 * that has to be read and transmits the register number before! 
 * This is neccessary for the reaction on interrupt requests of slave devices as this
 * function is non-blocking and thus very well suited for calls directly from ISRs. 
 */
void I2CTWI_requestRegisterFromDevice(uint8_t targetAdr, uint8_t requestID, uint8_t reg, uint8_t numberOfBytes)
{	
    189a:	ef 92       	push	r14
    189c:	ff 92       	push	r15
    189e:	0f 93       	push	r16
    18a0:	1f 93       	push	r17
    18a2:	e8 2e       	mov	r14, r24
    18a4:	16 2f       	mov	r17, r22
    18a6:	04 2f       	mov	r16, r20
    18a8:	f2 2e       	mov	r15, r18
    18aa:	02 c0       	rjmp	.+4      	; 0x18b0 <I2CTWI_requestRegisterFromDevice+0x16>
	while(I2CTWI_isBusy() || TWI_operation != I2CTWI_NO_OPERATION) task_I2CTWI();
    18ac:	0e 94 b4 0b 	call	0x1768	; 0x1768 <task_I2CTWI>
    18b0:	06 b6       	in	r0, 0x36	; 54
    18b2:	00 fc       	sbrc	r0, 0
    18b4:	fb cf       	rjmp	.-10     	; 0x18ac <I2CTWI_requestRegisterFromDevice+0x12>
    18b6:	80 91 99 00 	lds	r24, 0x0099
    18ba:	88 23       	and	r24, r24
    18bc:	b9 f7       	brne	.-18     	; 0x18ac <I2CTWI_requestRegisterFromDevice+0x12>
	TWI_operation = I2CTWI_SEND_REGISTER;
    18be:	81 e0       	ldi	r24, 0x01	; 1
    18c0:	80 93 99 00 	sts	0x0099, r24
	I2CTWI_requestID = (int16_t)requestID;
    18c4:	10 93 97 00 	sts	0x0097, r17
    18c8:	10 92 98 00 	sts	0x0098, r1
	I2CTWI_request_adr = targetAdr;
    18cc:	e0 92 94 00 	sts	0x0094, r14
	I2CTWI_request_reg = reg;
    18d0:	00 93 95 00 	sts	0x0095, r16
	I2CTWI_request_size = numberOfBytes;
    18d4:	f0 92 96 00 	sts	0x0096, r15
}
    18d8:	1f 91       	pop	r17
    18da:	0f 91       	pop	r16
    18dc:	ff 90       	pop	r15
    18de:	ef 90       	pop	r14
    18e0:	08 95       	ret

000018e2 <I2CTWI_getReceivedData>:
 * with the msgSize parameter.
 * It does not make sense to use this function anywhere else as you 
 * can not guarantee what is in the reception buffer...
 */
void I2CTWI_getReceivedData(uint8_t *msg, uint8_t msgSize)
{
    18e2:	9c 01       	movw	r18, r24
	while(I2CTWI_isBusy());
    18e4:	06 b6       	in	r0, 0x36	; 54
    18e6:	00 fc       	sbrc	r0, 0
    18e8:	fd cf       	rjmp	.-6      	; 0x18e4 <I2CTWI_getReceivedData+0x2>
	uint8_t i = 0;
	if(TWI_statusReg.lastTransOK)
    18ea:	80 91 92 00 	lds	r24, 0x0092
    18ee:	80 ff       	sbrs	r24, 0
    18f0:	0c c0       	rjmp	.+24     	; 0x190a <I2CTWI_getReceivedData+0x28>
    18f2:	ec ea       	ldi	r30, 0xAC	; 172
    18f4:	f0 e0       	ldi	r31, 0x00	; 0
    18f6:	d9 01       	movw	r26, r18
		for(; i < msgSize; i++)
    18f8:	70 e0       	ldi	r23, 0x00	; 0
    18fa:	6e 0f       	add	r22, r30
    18fc:	7f 1f       	adc	r23, r31
    18fe:	02 c0       	rjmp	.+4      	; 0x1904 <I2CTWI_getReceivedData+0x22>
			msg[i] = I2CTWI_recbuf[i+1];
    1900:	81 91       	ld	r24, Z+
    1902:	8d 93       	st	X+, r24
void I2CTWI_getReceivedData(uint8_t *msg, uint8_t msgSize)
{
	while(I2CTWI_isBusy());
	uint8_t i = 0;
	if(TWI_statusReg.lastTransOK)
		for(; i < msgSize; i++)
    1904:	e6 17       	cp	r30, r22
    1906:	f7 07       	cpc	r31, r23
    1908:	d9 f7       	brne	.-10     	; 0x1900 <I2CTWI_getReceivedData+0x1e>
    190a:	08 95       	ret

0000190c <I2CTWI_getState>:
 * This function returns the last TWI State / Error State. It waits until
 * TWI Module has completed last operation! 
 */
uint8_t I2CTWI_getState(void)
{
	while(I2CTWI_isBusy()); // Wait until TWI has completed the transmission.
    190c:	06 b6       	in	r0, 0x36	; 54
    190e:	00 fc       	sbrc	r0, 0
    1910:	fd cf       	rjmp	.-6      	; 0x190c <I2CTWI_getState>
	return (TWI_TWSR_state); // Return error state.
}
    1912:	80 91 93 00 	lds	r24, 0x0093
    1916:	08 95       	ret

00001918 <I2CTWI_readRegisters>:
/**
 * Reads "numberOfBytes" from "targetAdr" Register "reg" into "messageBuffer". 
 * If the slave device supports auto increment, then it reads all subsequent registers of course! 
 */
void I2CTWI_readRegisters(uint8_t targetAdr, uint8_t reg, uint8_t * messageBuffer, uint8_t numberOfBytes)
{
    1918:	ff 92       	push	r15
    191a:	0f 93       	push	r16
    191c:	1f 93       	push	r17
    191e:	cf 93       	push	r28
    1920:	df 93       	push	r29
    1922:	08 2f       	mov	r16, r24
    1924:	f6 2e       	mov	r15, r22
    1926:	ea 01       	movw	r28, r20
    1928:	12 2f       	mov	r17, r18
    192a:	02 c0       	rjmp	.+4      	; 0x1930 <I2CTWI_readRegisters+0x18>
	while(I2CTWI_isBusy() || TWI_operation != I2CTWI_NO_OPERATION) task_I2CTWI();
    192c:	0e 94 b4 0b 	call	0x1768	; 0x1768 <task_I2CTWI>
    1930:	06 b6       	in	r0, 0x36	; 54
    1932:	00 fc       	sbrc	r0, 0
    1934:	fb cf       	rjmp	.-10     	; 0x192c <I2CTWI_readRegisters+0x14>
    1936:	80 91 99 00 	lds	r24, 0x0099
    193a:	88 23       	and	r24, r24
    193c:	b9 f7       	brne	.-18     	; 0x192c <I2CTWI_readRegisters+0x14>
	TWI_operation = I2CTWI_SEND_REGISTER;
    193e:	81 e0       	ldi	r24, 0x01	; 1
    1940:	80 93 99 00 	sts	0x0099, r24
	I2CTWI_request_adr = targetAdr;
    1944:	00 93 94 00 	sts	0x0094, r16
	I2CTWI_requestID = -1;
    1948:	8f ef       	ldi	r24, 0xFF	; 255
    194a:	9f ef       	ldi	r25, 0xFF	; 255
    194c:	90 93 98 00 	sts	0x0098, r25
    1950:	80 93 97 00 	sts	0x0097, r24
	I2CTWI_request_reg = reg;
    1954:	f0 92 95 00 	sts	0x0095, r15
	I2CTWI_request_size = numberOfBytes;
    1958:	10 93 96 00 	sts	0x0096, r17
    195c:	02 c0       	rjmp	.+4      	; 0x1962 <I2CTWI_readRegisters+0x4a>
	while(I2CTWI_isBusy() || TWI_operation != I2CTWI_NO_OPERATION) task_I2CTWI();
    195e:	0e 94 b4 0b 	call	0x1768	; 0x1768 <task_I2CTWI>
    1962:	06 b6       	in	r0, 0x36	; 54
    1964:	00 fc       	sbrc	r0, 0
    1966:	fb cf       	rjmp	.-10     	; 0x195e <I2CTWI_readRegisters+0x46>
    1968:	80 91 99 00 	lds	r24, 0x0099
    196c:	88 23       	and	r24, r24
    196e:	b9 f7       	brne	.-18     	; 0x195e <I2CTWI_readRegisters+0x46>
	if (TWI_statusReg.lastTransOK) 
    1970:	80 91 92 00 	lds	r24, 0x0092
    1974:	80 ff       	sbrs	r24, 0
    1976:	05 c0       	rjmp	.+10     	; 0x1982 <I2CTWI_readRegisters+0x6a>
		I2CTWI_getReceivedData(&messageBuffer[0], numberOfBytes+1);
    1978:	1f 5f       	subi	r17, 0xFF	; 255
    197a:	ce 01       	movw	r24, r28
    197c:	61 2f       	mov	r22, r17
    197e:	0e 94 71 0c 	call	0x18e2	; 0x18e2 <I2CTWI_getReceivedData>
}
    1982:	df 91       	pop	r29
    1984:	cf 91       	pop	r28
    1986:	1f 91       	pop	r17
    1988:	0f 91       	pop	r16
    198a:	ff 90       	pop	r15
    198c:	08 95       	ret

0000198e <I2CTWI_readBytes>:
 * Same as readRegisters, but you need to make sure which register to read yourself - if there
 * are any registers at all in your slave device.  
 * 
 */
void I2CTWI_readBytes(uint8_t targetAdr, uint8_t * messageBuffer, uint8_t numberOfBytes)
{
    198e:	ef 92       	push	r14
    1990:	ff 92       	push	r15
    1992:	0f 93       	push	r16
    1994:	1f 93       	push	r17
    1996:	df 93       	push	r29
    1998:	cf 93       	push	r28
    199a:	0f 92       	push	r0
    199c:	cd b7       	in	r28, 0x3d	; 61
    199e:	de b7       	in	r29, 0x3e	; 62
    19a0:	08 2f       	mov	r16, r24
    19a2:	7b 01       	movw	r14, r22
    19a4:	14 2f       	mov	r17, r20
    19a6:	02 c0       	rjmp	.+4      	; 0x19ac <I2CTWI_readBytes+0x1e>
	while(I2CTWI_isBusy() || TWI_operation != I2CTWI_NO_OPERATION) task_I2CTWI();
    19a8:	0e 94 b4 0b 	call	0x1768	; 0x1768 <task_I2CTWI>
    19ac:	06 b6       	in	r0, 0x36	; 54
    19ae:	00 fc       	sbrc	r0, 0
    19b0:	fb cf       	rjmp	.-10     	; 0x19a8 <I2CTWI_readBytes+0x1a>
    19b2:	80 91 99 00 	lds	r24, 0x0099
    19b6:	88 23       	and	r24, r24
    19b8:	b9 f7       	brne	.-18     	; 0x19a8 <I2CTWI_readBytes+0x1a>
 * A small delay that is required between some transfers. Without this delay
 * the transmission may fail.
 */
void I2CTWI_delay(void)
{
	volatile uint8_t dly = 150;
    19ba:	86 e9       	ldi	r24, 0x96	; 150
    19bc:	89 83       	std	Y+1, r24	; 0x01
	while(dly--);
    19be:	89 81       	ldd	r24, Y+1	; 0x01
    19c0:	81 50       	subi	r24, 0x01	; 1
    19c2:	89 83       	std	Y+1, r24	; 0x01
    19c4:	8f 5f       	subi	r24, 0xFF	; 255
    19c6:	d9 f7       	brne	.-10     	; 0x19be <I2CTWI_readBytes+0x30>
 */
void I2CTWI_readBytes(uint8_t targetAdr, uint8_t * messageBuffer, uint8_t numberOfBytes)
{
	while(I2CTWI_isBusy() || TWI_operation != I2CTWI_NO_OPERATION) task_I2CTWI();
	I2CTWI_delay();
	TWI_operation = I2CTWI_REQUEST_BYTES;
    19c8:	82 e0       	ldi	r24, 0x02	; 2
    19ca:	80 93 99 00 	sts	0x0099, r24
	I2CTWI_request_adr = targetAdr;
    19ce:	00 93 94 00 	sts	0x0094, r16
	I2CTWI_requestID = -1;
    19d2:	8f ef       	ldi	r24, 0xFF	; 255
    19d4:	9f ef       	ldi	r25, 0xFF	; 255
    19d6:	90 93 98 00 	sts	0x0098, r25
    19da:	80 93 97 00 	sts	0x0097, r24
	I2CTWI_request_size = numberOfBytes;
    19de:	10 93 96 00 	sts	0x0096, r17
    19e2:	02 c0       	rjmp	.+4      	; 0x19e8 <I2CTWI_readBytes+0x5a>
	while(I2CTWI_isBusy() || TWI_operation != I2CTWI_NO_OPERATION) task_I2CTWI();
    19e4:	0e 94 b4 0b 	call	0x1768	; 0x1768 <task_I2CTWI>
    19e8:	06 b6       	in	r0, 0x36	; 54
    19ea:	00 fc       	sbrc	r0, 0
    19ec:	fb cf       	rjmp	.-10     	; 0x19e4 <I2CTWI_readBytes+0x56>
    19ee:	80 91 99 00 	lds	r24, 0x0099
    19f2:	88 23       	and	r24, r24
    19f4:	b9 f7       	brne	.-18     	; 0x19e4 <I2CTWI_readBytes+0x56>
	if (TWI_statusReg.lastTransOK) 
    19f6:	80 91 92 00 	lds	r24, 0x0092
    19fa:	80 ff       	sbrs	r24, 0
    19fc:	05 c0       	rjmp	.+10     	; 0x1a08 <I2CTWI_readBytes+0x7a>
		I2CTWI_getReceivedData(&messageBuffer[0], numberOfBytes+1);
    19fe:	1f 5f       	subi	r17, 0xFF	; 255
    1a00:	c7 01       	movw	r24, r14
    1a02:	61 2f       	mov	r22, r17
    1a04:	0e 94 71 0c 	call	0x18e2	; 0x18e2 <I2CTWI_getReceivedData>
}
    1a08:	0f 90       	pop	r0
    1a0a:	cf 91       	pop	r28
    1a0c:	df 91       	pop	r29
    1a0e:	1f 91       	pop	r17
    1a10:	0f 91       	pop	r16
    1a12:	ff 90       	pop	r15
    1a14:	ef 90       	pop	r14
    1a16:	08 95       	ret

00001a18 <I2CTWI_readByte>:

/**
 * Reads a single byte from the slave device. 
 */
uint8_t I2CTWI_readByte(uint8_t targetAdr)
{
    1a18:	1f 93       	push	r17
    1a1a:	df 93       	push	r29
    1a1c:	cf 93       	push	r28
    1a1e:	0f 92       	push	r0
    1a20:	cd b7       	in	r28, 0x3d	; 61
    1a22:	de b7       	in	r29, 0x3e	; 62
    1a24:	18 2f       	mov	r17, r24
    1a26:	02 c0       	rjmp	.+4      	; 0x1a2c <I2CTWI_readByte+0x14>
	while(I2CTWI_isBusy() || TWI_operation != I2CTWI_NO_OPERATION) task_I2CTWI();
    1a28:	0e 94 b4 0b 	call	0x1768	; 0x1768 <task_I2CTWI>
    1a2c:	06 b6       	in	r0, 0x36	; 54
    1a2e:	00 fc       	sbrc	r0, 0
    1a30:	fb cf       	rjmp	.-10     	; 0x1a28 <I2CTWI_readByte+0x10>
    1a32:	80 91 99 00 	lds	r24, 0x0099
    1a36:	88 23       	and	r24, r24
    1a38:	b9 f7       	brne	.-18     	; 0x1a28 <I2CTWI_readByte+0x10>
 * A small delay that is required between some transfers. Without this delay
 * the transmission may fail.
 */
void I2CTWI_delay(void)
{
	volatile uint8_t dly = 150;
    1a3a:	86 e9       	ldi	r24, 0x96	; 150
    1a3c:	89 83       	std	Y+1, r24	; 0x01
	while(dly--);
    1a3e:	89 81       	ldd	r24, Y+1	; 0x01
    1a40:	81 50       	subi	r24, 0x01	; 1
    1a42:	89 83       	std	Y+1, r24	; 0x01
    1a44:	8f 5f       	subi	r24, 0xFF	; 255
    1a46:	d9 f7       	brne	.-10     	; 0x1a3e <I2CTWI_readByte+0x26>
 */
uint8_t I2CTWI_readByte(uint8_t targetAdr)
{
	while(I2CTWI_isBusy() || TWI_operation != I2CTWI_NO_OPERATION) task_I2CTWI();
	I2CTWI_delay();
	TWI_operation = I2CTWI_REQUEST_BYTES;
    1a48:	82 e0       	ldi	r24, 0x02	; 2
    1a4a:	80 93 99 00 	sts	0x0099, r24
	I2CTWI_request_adr = targetAdr;
    1a4e:	10 93 94 00 	sts	0x0094, r17
	I2CTWI_requestID = -1;
    1a52:	8f ef       	ldi	r24, 0xFF	; 255
    1a54:	9f ef       	ldi	r25, 0xFF	; 255
    1a56:	90 93 98 00 	sts	0x0098, r25
    1a5a:	80 93 97 00 	sts	0x0097, r24
	I2CTWI_request_size = 1;
    1a5e:	81 e0       	ldi	r24, 0x01	; 1
    1a60:	80 93 96 00 	sts	0x0096, r24
    1a64:	02 c0       	rjmp	.+4      	; 0x1a6a <I2CTWI_readByte+0x52>
	while(TWI_operation != I2CTWI_NO_OPERATION) task_I2CTWI();
    1a66:	0e 94 b4 0b 	call	0x1768	; 0x1768 <task_I2CTWI>
    1a6a:	80 91 99 00 	lds	r24, 0x0099
    1a6e:	88 23       	and	r24, r24
    1a70:	d1 f7       	brne	.-12     	; 0x1a66 <I2CTWI_readByte+0x4e>
	if (TWI_statusReg.lastTransOK)
    1a72:	80 91 92 00 	lds	r24, 0x0092
    1a76:	80 fd       	sbrc	r24, 0
    1a78:	02 c0       	rjmp	.+4      	; 0x1a7e <I2CTWI_readByte+0x66>
    1a7a:	80 e0       	ldi	r24, 0x00	; 0
    1a7c:	02 c0       	rjmp	.+4      	; 0x1a82 <I2CTWI_readByte+0x6a>
		return I2CTWI_recbuf[1];
    1a7e:	80 91 ac 00 	lds	r24, 0x00AC
	else
		return 0;
}
    1a82:	0f 90       	pop	r0
    1a84:	cf 91       	pop	r28
    1a86:	df 91       	pop	r29
    1a88:	1f 91       	pop	r17
    1a8a:	08 95       	ret

00001a8c <I2CTWI_transmitByte>:
 * it does NOT wait until this transmission is finished! 
 * This allows you to perform other things while the transmission is 
 * in progress! 
 */
void I2CTWI_transmitByte(uint8_t targetAdr, uint8_t data)
{
    1a8c:	0f 93       	push	r16
    1a8e:	1f 93       	push	r17
    1a90:	df 93       	push	r29
    1a92:	cf 93       	push	r28
    1a94:	0f 92       	push	r0
    1a96:	cd b7       	in	r28, 0x3d	; 61
    1a98:	de b7       	in	r29, 0x3e	; 62
    1a9a:	18 2f       	mov	r17, r24
    1a9c:	06 2f       	mov	r16, r22
    1a9e:	02 c0       	rjmp	.+4      	; 0x1aa4 <I2CTWI_transmitByte+0x18>
	while(I2CTWI_isBusy() || TWI_operation != I2CTWI_NO_OPERATION) task_I2CTWI();
    1aa0:	0e 94 b4 0b 	call	0x1768	; 0x1768 <task_I2CTWI>
    1aa4:	06 b6       	in	r0, 0x36	; 54
    1aa6:	00 fc       	sbrc	r0, 0
    1aa8:	fb cf       	rjmp	.-10     	; 0x1aa0 <I2CTWI_transmitByte+0x14>
    1aaa:	80 91 99 00 	lds	r24, 0x0099
    1aae:	88 23       	and	r24, r24
    1ab0:	b9 f7       	brne	.-18     	; 0x1aa0 <I2CTWI_transmitByte+0x14>
 * A small delay that is required between some transfers. Without this delay
 * the transmission may fail.
 */
void I2CTWI_delay(void)
{
	volatile uint8_t dly = 150;
    1ab2:	86 e9       	ldi	r24, 0x96	; 150
    1ab4:	89 83       	std	Y+1, r24	; 0x01
	while(dly--);
    1ab6:	89 81       	ldd	r24, Y+1	; 0x01
    1ab8:	81 50       	subi	r24, 0x01	; 1
    1aba:	89 83       	std	Y+1, r24	; 0x01
    1abc:	8f 5f       	subi	r24, 0xFF	; 255
    1abe:	d9 f7       	brne	.-10     	; 0x1ab6 <I2CTWI_transmitByte+0x2a>
 */
void I2CTWI_transmitByte(uint8_t targetAdr, uint8_t data)
{
	while(I2CTWI_isBusy() || TWI_operation != I2CTWI_NO_OPERATION) task_I2CTWI();
	I2CTWI_delay();
	TWI_msgSize = 2;
    1ac0:	82 e0       	ldi	r24, 0x02	; 2
    1ac2:	80 93 db 00 	sts	0x00DB, r24
	I2CTWI_buf[0] = targetAdr;
    1ac6:	10 93 9b 00 	sts	0x009B, r17
	I2CTWI_buf[1] = data;
    1aca:	00 93 9c 00 	sts	0x009C, r16
	TWI_statusReg.all = 0;
    1ace:	10 92 92 00 	sts	0x0092, r1
	TWCR = (1<<TWEN)|(1<<TWIE)|(1<<TWINT)|(0<<TWEA)|(1<<TWSTA)|(0<<TWSTO);
    1ad2:	85 ea       	ldi	r24, 0xA5	; 165
    1ad4:	86 bf       	out	0x36, r24	; 54
}
    1ad6:	0f 90       	pop	r0
    1ad8:	cf 91       	pop	r28
    1ada:	df 91       	pop	r29
    1adc:	1f 91       	pop	r17
    1ade:	0f 91       	pop	r16
    1ae0:	08 95       	ret

00001ae2 <I2CTWI_transmit2Bytes>:
/**
 * This is just the same as transmitByte, but you can pass 2 Bytes to
 * this function which are then transferred. 
 */
void I2CTWI_transmit2Bytes(uint8_t targetAdr, uint8_t data1, uint8_t data2)
{
    1ae2:	ff 92       	push	r15
    1ae4:	0f 93       	push	r16
    1ae6:	1f 93       	push	r17
    1ae8:	df 93       	push	r29
    1aea:	cf 93       	push	r28
    1aec:	0f 92       	push	r0
    1aee:	cd b7       	in	r28, 0x3d	; 61
    1af0:	de b7       	in	r29, 0x3e	; 62
    1af2:	18 2f       	mov	r17, r24
    1af4:	06 2f       	mov	r16, r22
    1af6:	f4 2e       	mov	r15, r20
    1af8:	02 c0       	rjmp	.+4      	; 0x1afe <I2CTWI_transmit2Bytes+0x1c>
	while(I2CTWI_isBusy() || TWI_operation != I2CTWI_NO_OPERATION) task_I2CTWI();
    1afa:	0e 94 b4 0b 	call	0x1768	; 0x1768 <task_I2CTWI>
    1afe:	06 b6       	in	r0, 0x36	; 54
    1b00:	00 fc       	sbrc	r0, 0
    1b02:	fb cf       	rjmp	.-10     	; 0x1afa <I2CTWI_transmit2Bytes+0x18>
    1b04:	80 91 99 00 	lds	r24, 0x0099
    1b08:	88 23       	and	r24, r24
    1b0a:	b9 f7       	brne	.-18     	; 0x1afa <I2CTWI_transmit2Bytes+0x18>
 * A small delay that is required between some transfers. Without this delay
 * the transmission may fail.
 */
void I2CTWI_delay(void)
{
	volatile uint8_t dly = 150;
    1b0c:	86 e9       	ldi	r24, 0x96	; 150
    1b0e:	89 83       	std	Y+1, r24	; 0x01
	while(dly--);
    1b10:	89 81       	ldd	r24, Y+1	; 0x01
    1b12:	81 50       	subi	r24, 0x01	; 1
    1b14:	89 83       	std	Y+1, r24	; 0x01
    1b16:	8f 5f       	subi	r24, 0xFF	; 255
    1b18:	d9 f7       	brne	.-10     	; 0x1b10 <I2CTWI_transmit2Bytes+0x2e>
 */
void I2CTWI_transmit2Bytes(uint8_t targetAdr, uint8_t data1, uint8_t data2)
{
	while(I2CTWI_isBusy() || TWI_operation != I2CTWI_NO_OPERATION) task_I2CTWI();
	I2CTWI_delay();
	TWI_msgSize = 3;
    1b1a:	83 e0       	ldi	r24, 0x03	; 3
    1b1c:	80 93 db 00 	sts	0x00DB, r24
	I2CTWI_buf[0] = targetAdr;
    1b20:	10 93 9b 00 	sts	0x009B, r17
	I2CTWI_buf[1] = data1;
    1b24:	00 93 9c 00 	sts	0x009C, r16
	I2CTWI_buf[2] = data2;
    1b28:	f0 92 9d 00 	sts	0x009D, r15
	TWI_statusReg.all = 0;
    1b2c:	10 92 92 00 	sts	0x0092, r1
	TWCR = (1<<TWEN)|(1<<TWIE)|(1<<TWINT)|(0<<TWEA)|(1<<TWSTA)|(0<<TWSTO);
    1b30:	85 ea       	ldi	r24, 0xA5	; 165
    1b32:	86 bf       	out	0x36, r24	; 54
}
    1b34:	0f 90       	pop	r0
    1b36:	cf 91       	pop	r28
    1b38:	df 91       	pop	r29
    1b3a:	1f 91       	pop	r17
    1b3c:	0f 91       	pop	r16
    1b3e:	ff 90       	pop	r15
    1b40:	08 95       	ret

00001b42 <I2CTWI_transmit3Bytes>:

/**
 * Transmits 3 Bytes to the slave.
 */
void I2CTWI_transmit3Bytes(uint8_t targetAdr, uint8_t data1, uint8_t data2, uint8_t data3)
{
    1b42:	ef 92       	push	r14
    1b44:	ff 92       	push	r15
    1b46:	0f 93       	push	r16
    1b48:	1f 93       	push	r17
    1b4a:	df 93       	push	r29
    1b4c:	cf 93       	push	r28
    1b4e:	0f 92       	push	r0
    1b50:	cd b7       	in	r28, 0x3d	; 61
    1b52:	de b7       	in	r29, 0x3e	; 62
    1b54:	18 2f       	mov	r17, r24
    1b56:	06 2f       	mov	r16, r22
    1b58:	f4 2e       	mov	r15, r20
    1b5a:	e2 2e       	mov	r14, r18
    1b5c:	02 c0       	rjmp	.+4      	; 0x1b62 <I2CTWI_transmit3Bytes+0x20>
	while(I2CTWI_isBusy() || TWI_operation != I2CTWI_NO_OPERATION) task_I2CTWI();
    1b5e:	0e 94 b4 0b 	call	0x1768	; 0x1768 <task_I2CTWI>
    1b62:	06 b6       	in	r0, 0x36	; 54
    1b64:	00 fc       	sbrc	r0, 0
    1b66:	fb cf       	rjmp	.-10     	; 0x1b5e <I2CTWI_transmit3Bytes+0x1c>
    1b68:	80 91 99 00 	lds	r24, 0x0099
    1b6c:	88 23       	and	r24, r24
    1b6e:	b9 f7       	brne	.-18     	; 0x1b5e <I2CTWI_transmit3Bytes+0x1c>
 * A small delay that is required between some transfers. Without this delay
 * the transmission may fail.
 */
void I2CTWI_delay(void)
{
	volatile uint8_t dly = 150;
    1b70:	86 e9       	ldi	r24, 0x96	; 150
    1b72:	89 83       	std	Y+1, r24	; 0x01
	while(dly--);
    1b74:	89 81       	ldd	r24, Y+1	; 0x01
    1b76:	81 50       	subi	r24, 0x01	; 1
    1b78:	89 83       	std	Y+1, r24	; 0x01
    1b7a:	8f 5f       	subi	r24, 0xFF	; 255
    1b7c:	d9 f7       	brne	.-10     	; 0x1b74 <I2CTWI_transmit3Bytes+0x32>
 */
void I2CTWI_transmit3Bytes(uint8_t targetAdr, uint8_t data1, uint8_t data2, uint8_t data3)
{
	while(I2CTWI_isBusy() || TWI_operation != I2CTWI_NO_OPERATION) task_I2CTWI();
	I2CTWI_delay();
	TWI_msgSize = 4;
    1b7e:	84 e0       	ldi	r24, 0x04	; 4
    1b80:	80 93 db 00 	sts	0x00DB, r24
	I2CTWI_buf[0] = targetAdr;
    1b84:	10 93 9b 00 	sts	0x009B, r17
	I2CTWI_buf[1] = data1;
    1b88:	00 93 9c 00 	sts	0x009C, r16
	I2CTWI_buf[2] = data2;
    1b8c:	f0 92 9d 00 	sts	0x009D, r15
	I2CTWI_buf[3] = data3;
    1b90:	e0 92 9e 00 	sts	0x009E, r14
	TWI_statusReg.all = 0;
    1b94:	10 92 92 00 	sts	0x0092, r1
	TWCR = (1<<TWEN)|(1<<TWIE)|(1<<TWINT)|(0<<TWEA)|(1<<TWSTA)|(0<<TWSTO);
    1b98:	85 ea       	ldi	r24, 0xA5	; 165
    1b9a:	86 bf       	out	0x36, r24	; 54
}
    1b9c:	0f 90       	pop	r0
    1b9e:	cf 91       	pop	r28
    1ba0:	df 91       	pop	r29
    1ba2:	1f 91       	pop	r17
    1ba4:	0f 91       	pop	r16
    1ba6:	ff 90       	pop	r15
    1ba8:	ef 90       	pop	r14
    1baa:	08 95       	ret

00001bac <I2CTWI_transmit4Bytes>:

/**
 * Transmits 4 Bytes to the slave.
 */
void I2CTWI_transmit4Bytes(uint8_t targetAdr, uint8_t data1, uint8_t data2, uint8_t data3, uint8_t data4)
{
    1bac:	df 92       	push	r13
    1bae:	ef 92       	push	r14
    1bb0:	ff 92       	push	r15
    1bb2:	0f 93       	push	r16
    1bb4:	1f 93       	push	r17
    1bb6:	df 93       	push	r29
    1bb8:	cf 93       	push	r28
    1bba:	0f 92       	push	r0
    1bbc:	cd b7       	in	r28, 0x3d	; 61
    1bbe:	de b7       	in	r29, 0x3e	; 62
    1bc0:	18 2f       	mov	r17, r24
    1bc2:	f6 2e       	mov	r15, r22
    1bc4:	e4 2e       	mov	r14, r20
    1bc6:	d2 2e       	mov	r13, r18
    1bc8:	02 c0       	rjmp	.+4      	; 0x1bce <I2CTWI_transmit4Bytes+0x22>
	while(I2CTWI_isBusy() || TWI_operation != I2CTWI_NO_OPERATION) task_I2CTWI();
    1bca:	0e 94 b4 0b 	call	0x1768	; 0x1768 <task_I2CTWI>
    1bce:	06 b6       	in	r0, 0x36	; 54
    1bd0:	00 fc       	sbrc	r0, 0
    1bd2:	fb cf       	rjmp	.-10     	; 0x1bca <I2CTWI_transmit4Bytes+0x1e>
    1bd4:	80 91 99 00 	lds	r24, 0x0099
    1bd8:	88 23       	and	r24, r24
    1bda:	b9 f7       	brne	.-18     	; 0x1bca <I2CTWI_transmit4Bytes+0x1e>
 * A small delay that is required between some transfers. Without this delay
 * the transmission may fail.
 */
void I2CTWI_delay(void)
{
	volatile uint8_t dly = 150;
    1bdc:	86 e9       	ldi	r24, 0x96	; 150
    1bde:	89 83       	std	Y+1, r24	; 0x01
	while(dly--);
    1be0:	89 81       	ldd	r24, Y+1	; 0x01
    1be2:	81 50       	subi	r24, 0x01	; 1
    1be4:	89 83       	std	Y+1, r24	; 0x01
    1be6:	8f 5f       	subi	r24, 0xFF	; 255
    1be8:	d9 f7       	brne	.-10     	; 0x1be0 <I2CTWI_transmit4Bytes+0x34>
 */
void I2CTWI_transmit4Bytes(uint8_t targetAdr, uint8_t data1, uint8_t data2, uint8_t data3, uint8_t data4)
{
	while(I2CTWI_isBusy() || TWI_operation != I2CTWI_NO_OPERATION) task_I2CTWI();
	I2CTWI_delay();
	TWI_msgSize = 5;
    1bea:	85 e0       	ldi	r24, 0x05	; 5
    1bec:	80 93 db 00 	sts	0x00DB, r24
	I2CTWI_buf[0] = targetAdr;
    1bf0:	10 93 9b 00 	sts	0x009B, r17
	I2CTWI_buf[1] = data1;
    1bf4:	f0 92 9c 00 	sts	0x009C, r15
	I2CTWI_buf[2] = data2;
    1bf8:	e0 92 9d 00 	sts	0x009D, r14
	I2CTWI_buf[3] = data3;
    1bfc:	d0 92 9e 00 	sts	0x009E, r13
	I2CTWI_buf[4] = data4;
    1c00:	00 93 9f 00 	sts	0x009F, r16
	TWI_statusReg.all = 0;
    1c04:	10 92 92 00 	sts	0x0092, r1
	TWCR = (1<<TWEN)|(1<<TWIE)|(1<<TWINT)|(0<<TWEA)|(1<<TWSTA)|(0<<TWSTO);
    1c08:	85 ea       	ldi	r24, 0xA5	; 165
    1c0a:	86 bf       	out	0x36, r24	; 54
}
    1c0c:	0f 90       	pop	r0
    1c0e:	cf 91       	pop	r28
    1c10:	df 91       	pop	r29
    1c12:	1f 91       	pop	r17
    1c14:	0f 91       	pop	r16
    1c16:	ff 90       	pop	r15
    1c18:	ef 90       	pop	r14
    1c1a:	df 90       	pop	r13
    1c1c:	08 95       	ret

00001c1e <I2CTWI_transmitBytes>:
/**
 * Transmits "numberOfBytes" Bytes to the Slave device. The Bytes need to be
 * in the Buffer "msg". Otherwise it is just the same as the other transmit functions.
 */
void I2CTWI_transmitBytes(uint8_t targetAdr, uint8_t *msg, uint8_t numberOfBytes)
{
    1c1e:	ef 92       	push	r14
    1c20:	ff 92       	push	r15
    1c22:	0f 93       	push	r16
    1c24:	1f 93       	push	r17
    1c26:	df 93       	push	r29
    1c28:	cf 93       	push	r28
    1c2a:	0f 92       	push	r0
    1c2c:	cd b7       	in	r28, 0x3d	; 61
    1c2e:	de b7       	in	r29, 0x3e	; 62
    1c30:	08 2f       	mov	r16, r24
    1c32:	f6 2e       	mov	r15, r22
    1c34:	e7 2e       	mov	r14, r23
    1c36:	14 2f       	mov	r17, r20
    1c38:	02 c0       	rjmp	.+4      	; 0x1c3e <I2CTWI_transmitBytes+0x20>
	while(I2CTWI_isBusy() || TWI_operation != I2CTWI_NO_OPERATION) task_I2CTWI();
    1c3a:	0e 94 b4 0b 	call	0x1768	; 0x1768 <task_I2CTWI>
    1c3e:	06 b6       	in	r0, 0x36	; 54
    1c40:	00 fc       	sbrc	r0, 0
    1c42:	fb cf       	rjmp	.-10     	; 0x1c3a <I2CTWI_transmitBytes+0x1c>
    1c44:	80 91 99 00 	lds	r24, 0x0099
    1c48:	88 23       	and	r24, r24
    1c4a:	b9 f7       	brne	.-18     	; 0x1c3a <I2CTWI_transmitBytes+0x1c>
 * A small delay that is required between some transfers. Without this delay
 * the transmission may fail.
 */
void I2CTWI_delay(void)
{
	volatile uint8_t dly = 150;
    1c4c:	86 e9       	ldi	r24, 0x96	; 150
    1c4e:	89 83       	std	Y+1, r24	; 0x01
	while(dly--);
    1c50:	89 81       	ldd	r24, Y+1	; 0x01
    1c52:	81 50       	subi	r24, 0x01	; 1
    1c54:	89 83       	std	Y+1, r24	; 0x01
    1c56:	8f 5f       	subi	r24, 0xFF	; 255
    1c58:	d9 f7       	brne	.-10     	; 0x1c50 <I2CTWI_transmitBytes+0x32>
 */
void I2CTWI_transmitBytes(uint8_t targetAdr, uint8_t *msg, uint8_t numberOfBytes)
{
	while(I2CTWI_isBusy() || TWI_operation != I2CTWI_NO_OPERATION) task_I2CTWI();
	I2CTWI_delay();
	numberOfBytes++; 
    1c5a:	41 2f       	mov	r20, r17
    1c5c:	4f 5f       	subi	r20, 0xFF	; 255
	TWI_msgSize = numberOfBytes;
    1c5e:	40 93 db 00 	sts	0x00DB, r20
	I2CTWI_buf[0]  = targetAdr;
    1c62:	00 93 9b 00 	sts	0x009B, r16
    1c66:	ac e9       	ldi	r26, 0x9C	; 156
    1c68:	b0 e0       	ldi	r27, 0x00	; 0
    1c6a:	8f 2d       	mov	r24, r15
    1c6c:	9e 2d       	mov	r25, r14
    1c6e:	9c 01       	movw	r18, r24
    1c70:	f9 01       	movw	r30, r18
    1c72:	02 c0       	rjmp	.+4      	; 0x1c78 <I2CTWI_transmitBytes+0x5a>
	uint8_t i = 0;
	for(; i < numberOfBytes; i++)
		I2CTWI_buf[i+1] = msg[i];
    1c74:	81 91       	ld	r24, Z+
    1c76:	8d 93       	st	X+, r24
	I2CTWI_delay();
	numberOfBytes++; 
	TWI_msgSize = numberOfBytes;
	I2CTWI_buf[0]  = targetAdr;
	uint8_t i = 0;
	for(; i < numberOfBytes; i++)
    1c78:	8e 2f       	mov	r24, r30
    1c7a:	8f 19       	sub	r24, r15
    1c7c:	84 17       	cp	r24, r20
    1c7e:	d0 f3       	brcs	.-12     	; 0x1c74 <I2CTWI_transmitBytes+0x56>
		I2CTWI_buf[i+1] = msg[i];
	TWI_statusReg.all = 0;
    1c80:	10 92 92 00 	sts	0x0092, r1
	TWCR = (1<<TWEN)|(1<<TWIE)|(1<<TWINT)|(0<<TWEA)|(1<<TWSTA)|(0<<TWSTO);
    1c84:	85 ea       	ldi	r24, 0xA5	; 165
    1c86:	86 bf       	out	0x36, r24	; 54
}
    1c88:	0f 90       	pop	r0
    1c8a:	cf 91       	pop	r28
    1c8c:	df 91       	pop	r29
    1c8e:	1f 91       	pop	r17
    1c90:	0f 91       	pop	r16
    1c92:	ff 90       	pop	r15
    1c94:	ef 90       	pop	r14
    1c96:	08 95       	ret

00001c98 <__vector_19>:

/*
 * TWI ISR
 */
ISR (TWI_vect)
{
    1c98:	1f 92       	push	r1
    1c9a:	0f 92       	push	r0
    1c9c:	0f b6       	in	r0, 0x3f	; 63
    1c9e:	0f 92       	push	r0
    1ca0:	11 24       	eor	r1, r1
    1ca2:	2f 93       	push	r18
    1ca4:	3f 93       	push	r19
    1ca6:	8f 93       	push	r24
    1ca8:	9f 93       	push	r25
    1caa:	ef 93       	push	r30
    1cac:	ff 93       	push	r31
	static uint8_t TWI_bufPos = 0;
	switch (TWSR)
    1cae:	81 b1       	in	r24, 0x01	; 1
    1cb0:	88 32       	cpi	r24, 0x28	; 40
    1cb2:	c9 f0       	breq	.+50     	; 0x1ce6 <__vector_19+0x4e>
    1cb4:	89 32       	cpi	r24, 0x29	; 41
    1cb6:	40 f4       	brcc	.+16     	; 0x1cc8 <__vector_19+0x30>
    1cb8:	80 31       	cpi	r24, 0x10	; 16
    1cba:	99 f0       	breq	.+38     	; 0x1ce2 <__vector_19+0x4a>
    1cbc:	88 31       	cpi	r24, 0x18	; 24
    1cbe:	99 f0       	breq	.+38     	; 0x1ce6 <__vector_19+0x4e>
    1cc0:	88 30       	cpi	r24, 0x08	; 8
    1cc2:	09 f0       	breq	.+2      	; 0x1cc6 <__vector_19+0x2e>
    1cc4:	4b c0       	rjmp	.+150    	; 0x1d5c <__vector_19+0xc4>
    1cc6:	0d c0       	rjmp	.+26     	; 0x1ce2 <__vector_19+0x4a>
    1cc8:	80 34       	cpi	r24, 0x40	; 64
    1cca:	41 f1       	breq	.+80     	; 0x1d1c <__vector_19+0x84>
    1ccc:	81 34       	cpi	r24, 0x41	; 65
    1cce:	20 f4       	brcc	.+8      	; 0x1cd8 <__vector_19+0x40>
    1cd0:	88 33       	cpi	r24, 0x38	; 56
    1cd2:	09 f0       	breq	.+2      	; 0x1cd6 <__vector_19+0x3e>
    1cd4:	43 c0       	rjmp	.+134    	; 0x1d5c <__vector_19+0xc4>
    1cd6:	3d c0       	rjmp	.+122    	; 0x1d52 <__vector_19+0xba>
    1cd8:	80 35       	cpi	r24, 0x50	; 80
    1cda:	a9 f0       	breq	.+42     	; 0x1d06 <__vector_19+0x6e>
    1cdc:	88 35       	cpi	r24, 0x58	; 88
    1cde:	f1 f5       	brne	.+124    	; 0x1d5c <__vector_19+0xc4>
    1ce0:	2b c0       	rjmp	.+86     	; 0x1d38 <__vector_19+0xa0>
	{
		case TWI_START:             // START has been transmitted  
		case TWI_REP_START:         // Repeated START has been transmitted
		  TWI_bufPos = 0;           // Set buffer pointer to the TWI Address location
    1ce2:	10 92 9a 00 	sts	0x009A, r1
		case TWI_MTX_ADR_ACK:       // SLA+W has been transmitted and ACK received
		case TWI_MTX_DATA_ACK:      // Data byte has been transmitted and ACK received
		  if (TWI_bufPos < TWI_msgSize) {
    1ce6:	90 91 9a 00 	lds	r25, 0x009A
    1cea:	80 91 db 00 	lds	r24, 0x00DB
    1cee:	98 17       	cp	r25, r24
    1cf0:	50 f5       	brcc	.+84     	; 0x1d46 <__vector_19+0xae>
			TWDR = I2CTWI_buf[TWI_bufPos++];
    1cf2:	e9 2f       	mov	r30, r25
    1cf4:	f0 e0       	ldi	r31, 0x00	; 0
    1cf6:	e5 56       	subi	r30, 0x65	; 101
    1cf8:	ff 4f       	sbci	r31, 0xFF	; 255
    1cfa:	80 81       	ld	r24, Z
    1cfc:	83 b9       	out	0x03, r24	; 3
    1cfe:	9f 5f       	subi	r25, 0xFF	; 255
    1d00:	90 93 9a 00 	sts	0x009A, r25
    1d04:	17 c0       	rjmp	.+46     	; 0x1d34 <__vector_19+0x9c>
				   (0<<TWEA)|(0<<TWSTA)|(1<<TWSTO)|           // Initiate a STOP condition.
				   (0<<TWWC);                                 //
		  }
		  break;
		case TWI_MRX_DATA_ACK:      // Data byte has been received and ACK transmitted
		  I2CTWI_recbuf[TWI_bufPos++] = TWDR;
    1d06:	80 91 9a 00 	lds	r24, 0x009A
    1d0a:	93 b1       	in	r25, 0x03	; 3
    1d0c:	e8 2f       	mov	r30, r24
    1d0e:	f0 e0       	ldi	r31, 0x00	; 0
    1d10:	e5 55       	subi	r30, 0x55	; 85
    1d12:	ff 4f       	sbci	r31, 0xFF	; 255
    1d14:	90 83       	st	Z, r25
    1d16:	8f 5f       	subi	r24, 0xFF	; 255
    1d18:	80 93 9a 00 	sts	0x009A, r24
		case TWI_MRX_ADR_ACK:       // SLA+R has been transmitted and ACK received
		  if (TWI_bufPos < (TWI_msgSize-1) ) {                 // Detect the last byte to NACK it.
    1d1c:	20 91 9a 00 	lds	r18, 0x009A
    1d20:	30 e0       	ldi	r19, 0x00	; 0
    1d22:	80 91 db 00 	lds	r24, 0x00DB
    1d26:	90 e0       	ldi	r25, 0x00	; 0
    1d28:	01 97       	sbiw	r24, 0x01	; 1
    1d2a:	28 17       	cp	r18, r24
    1d2c:	39 07       	cpc	r19, r25
    1d2e:	14 f4       	brge	.+4      	; 0x1d34 <__vector_19+0x9c>
			TWCR = (1<<TWEN)|                                 // TWI Interface enabled
    1d30:	85 ec       	ldi	r24, 0xC5	; 197
    1d32:	18 c0       	rjmp	.+48     	; 0x1d64 <__vector_19+0xcc>
				   (1<<TWIE)|(1<<TWINT)|                      // Enable TWI Interupt and clear the flag to read next byte
				   (1<<TWEA)|(0<<TWSTA)|(0<<TWSTO)|           // Send ACK after reception
				   (0<<TWWC);                                 //  
		  } else {                   // Send NACK after next reception
			TWCR = (1<<TWEN)|                                 // TWI Interface enabled
    1d34:	85 e8       	ldi	r24, 0x85	; 133
    1d36:	16 c0       	rjmp	.+44     	; 0x1d64 <__vector_19+0xcc>
				   (0<<TWEA)|(0<<TWSTA)|(0<<TWSTO)|           // Send NACK after reception
				   (0<<TWWC);                                 // 
		  }    
		  break; 
		case TWI_MRX_DATA_NACK:     // Data byte has been received and NACK transmitted
		  I2CTWI_recbuf[TWI_bufPos] = TWDR;
    1d38:	83 b1       	in	r24, 0x03	; 3
    1d3a:	e0 91 9a 00 	lds	r30, 0x009A
    1d3e:	f0 e0       	ldi	r31, 0x00	; 0
    1d40:	e5 55       	subi	r30, 0x55	; 85
    1d42:	ff 4f       	sbci	r31, 0xFF	; 255
    1d44:	80 83       	st	Z, r24
		  TWI_statusReg.lastTransOK = 1;                 	// Set status bits to completed successfully. 		 
    1d46:	80 91 92 00 	lds	r24, 0x0092
    1d4a:	81 60       	ori	r24, 0x01	; 1
    1d4c:	80 93 92 00 	sts	0x0092, r24
    1d50:	08 c0       	rjmp	.+16     	; 0x1d62 <__vector_19+0xca>
				 (0<<TWIE)|(1<<TWINT)|                      // Disable TWI Interrupt and clear the flag
				 (0<<TWEA)|(0<<TWSTA)|(1<<TWSTO)|           // Initiate a STOP condition.
				 (0<<TWWC);                                 //
		  break;      
		case TWI_ARB_LOST:          // Arbitration lost
		  TWI_TWSR_state = TWSR;  							// Store TWSR 	
    1d52:	81 b1       	in	r24, 0x01	; 1
    1d54:	80 93 93 00 	sts	0x0093, r24
		  TWCR = (1<<TWEN)|                                 // TWI Interface enabled
    1d58:	85 ea       	ldi	r24, 0xA5	; 165
    1d5a:	04 c0       	rjmp	.+8      	; 0x1d64 <__vector_19+0xcc>
				 (1<<TWIE)|(1<<TWINT)|                      // Enable TWI Interupt and clear the flag
				 (0<<TWEA)|(1<<TWSTA)|(0<<TWSTO)|           // Initiate a (RE)START condition.
				 (0<<TWWC);                                 //
		  break;
		default:     
		  TWI_TWSR_state = TWSR;                     		// Store TWSR 					
    1d5c:	81 b1       	in	r24, 0x01	; 1
    1d5e:	80 93 93 00 	sts	0x0093, r24
		  TWCR = (1<<TWEN)|                                 // Enable TWI-interface and release TWI pins
    1d62:	84 e9       	ldi	r24, 0x94	; 148
    1d64:	86 bf       	out	0x36, r24	; 54
				 (0<<TWIE)|(1<<TWINT)|                      // Disable Interupt
				 (0<<TWEA)|(0<<TWSTA)|(1<<TWSTO)|           // No Signal requests
				 (0<<TWWC); 
		break;
	}
}
    1d66:	ff 91       	pop	r31
    1d68:	ef 91       	pop	r30
    1d6a:	9f 91       	pop	r25
    1d6c:	8f 91       	pop	r24
    1d6e:	3f 91       	pop	r19
    1d70:	2f 91       	pop	r18
    1d72:	0f 90       	pop	r0
    1d74:	0f be       	out	0x3f, r0	; 63
    1d76:	0f 90       	pop	r0
    1d78:	1f 90       	pop	r1
    1d7a:	18 95       	reti

00001d7c <printDataToCSharpApplcation>:
    sensor->diffRightSide= sensor->valueRightRear - sensor->valueRightFront;

}

void printDataToCSharpApplcation (_ir_distance *sensor, uint16_t batteryValue)
{
    1d7c:	ef 92       	push	r14
    1d7e:	ff 92       	push	r15
    1d80:	0f 93       	push	r16
    1d82:	1f 93       	push	r17
    1d84:	8c 01       	movw	r16, r24
    1d86:	7b 01       	movw	r14, r22
    _CMP_S10 _compassStruct;
    //ReadCompass(&_compassStruct); // compass module is kapot.
    writeChar('$');
    1d88:	84 e2       	ldi	r24, 0x24	; 36
    1d8a:	0e 94 73 0a 	call	0x14e6	; 0x14e6 <writeChar>
    writeInteger(sensor->valueLeftFront,DEC);
    1d8e:	f8 01       	movw	r30, r16
    1d90:	84 81       	ldd	r24, Z+4	; 0x04
    1d92:	95 81       	ldd	r25, Z+5	; 0x05
    1d94:	6a e0       	ldi	r22, 0x0A	; 10
    1d96:	0e 94 29 0b 	call	0x1652	; 0x1652 <writeInteger>
    writeChar(',');
    1d9a:	8c e2       	ldi	r24, 0x2C	; 44
    1d9c:	0e 94 73 0a 	call	0x14e6	; 0x14e6 <writeChar>
    writeInteger(sensor->valueRightFront,DEC);
    1da0:	f8 01       	movw	r30, r16
    1da2:	80 81       	ld	r24, Z
    1da4:	91 81       	ldd	r25, Z+1	; 0x01
    1da6:	6a e0       	ldi	r22, 0x0A	; 10
    1da8:	0e 94 29 0b 	call	0x1652	; 0x1652 <writeInteger>
    writeChar(',');
    1dac:	8c e2       	ldi	r24, 0x2C	; 44
    1dae:	0e 94 73 0a 	call	0x14e6	; 0x14e6 <writeChar>
    writeInteger(sensor->valueLeftRear,DEC);
    1db2:	f8 01       	movw	r30, r16
    1db4:	86 81       	ldd	r24, Z+6	; 0x06
    1db6:	97 81       	ldd	r25, Z+7	; 0x07
    1db8:	6a e0       	ldi	r22, 0x0A	; 10
    1dba:	0e 94 29 0b 	call	0x1652	; 0x1652 <writeInteger>
    writeChar(',');
    1dbe:	8c e2       	ldi	r24, 0x2C	; 44
    1dc0:	0e 94 73 0a 	call	0x14e6	; 0x14e6 <writeChar>
    writeInteger(sensor->valueRightRear,DEC);
    1dc4:	f8 01       	movw	r30, r16
    1dc6:	82 81       	ldd	r24, Z+2	; 0x02
    1dc8:	93 81       	ldd	r25, Z+3	; 0x03
    1dca:	6a e0       	ldi	r22, 0x0A	; 10
    1dcc:	0e 94 29 0b 	call	0x1652	; 0x1652 <writeInteger>
    writeChar(',');
    1dd0:	8c e2       	ldi	r24, 0x2C	; 44
    1dd2:	0e 94 73 0a 	call	0x14e6	; 0x14e6 <writeChar>
    writeInteger(sensor->diffRightSide,DEC);
    1dd6:	f8 01       	movw	r30, r16
    1dd8:	80 85       	ldd	r24, Z+8	; 0x08
    1dda:	91 85       	ldd	r25, Z+9	; 0x09
    1ddc:	6a e0       	ldi	r22, 0x0A	; 10
    1dde:	0e 94 29 0b 	call	0x1652	; 0x1652 <writeInteger>
    writeChar(',');
    1de2:	8c e2       	ldi	r24, 0x2C	; 44
    1de4:	0e 94 73 0a 	call	0x14e6	; 0x14e6 <writeChar>
    writeInteger(sensor->diffLeftSide,DEC);
    1de8:	f8 01       	movw	r30, r16
    1dea:	82 85       	ldd	r24, Z+10	; 0x0a
    1dec:	93 85       	ldd	r25, Z+11	; 0x0b
    1dee:	6a e0       	ldi	r22, 0x0A	; 10
    1df0:	0e 94 29 0b 	call	0x1652	; 0x1652 <writeInteger>
    writeChar(',');
    1df4:	8c e2       	ldi	r24, 0x2C	; 44
    1df6:	0e 94 73 0a 	call	0x14e6	; 0x14e6 <writeChar>
    writeInteger(batteryValue,DEC);
    1dfa:	c7 01       	movw	r24, r14
    1dfc:	6a e0       	ldi	r22, 0x0A	; 10
    1dfe:	0e 94 29 0b 	call	0x1652	; 0x1652 <writeInteger>
    writeChar(',');
    1e02:	8c e2       	ldi	r24, 0x2C	; 44
    1e04:	0e 94 73 0a 	call	0x14e6	; 0x14e6 <writeChar>
    writeInteger(_compassStruct.CompassBearing,DEC); // deze zal 0 aan geven ivm defecte compas sensor
    1e08:	80 e0       	ldi	r24, 0x00	; 0
    1e0a:	90 e0       	ldi	r25, 0x00	; 0
    1e0c:	6a e0       	ldi	r22, 0x0A	; 10
    1e0e:	0e 94 29 0b 	call	0x1652	; 0x1652 <writeInteger>
    writeChar(',');
    1e12:	8c e2       	ldi	r24, 0x2C	; 44
    1e14:	0e 94 73 0a 	call	0x14e6	; 0x14e6 <writeChar>
    writeChar('#');
    1e18:	83 e2       	ldi	r24, 0x23	; 35
    1e1a:	0e 94 73 0a 	call	0x14e6	; 0x14e6 <writeChar>
    writeChar('\n');
    1e1e:	8a e0       	ldi	r24, 0x0A	; 10
    1e20:	0e 94 73 0a 	call	0x14e6	; 0x14e6 <writeChar>

}
    1e24:	1f 91       	pop	r17
    1e26:	0f 91       	pop	r16
    1e28:	ff 90       	pop	r15
    1e2a:	ef 90       	pop	r14
    1e2c:	08 95       	ret

00001e2e <printScharpSensorsValues>:
    *rearLeft  = readADC(ADC_3);
    *rearRight = readADC(ADC_2);
}

void printScharpSensorsValues(_ir_distance *sensor)
{
    1e2e:	cf 92       	push	r12
    1e30:	df 92       	push	r13
    1e32:	ef 92       	push	r14
    1e34:	ff 92       	push	r15
    1e36:	0f 93       	push	r16
    1e38:	1f 93       	push	r17
    1e3a:	8c 01       	movw	r16, r24
        clearLCD();
    1e3c:	0e 94 1a 08 	call	0x1034	; 0x1034 <clearLCD>
        setCursorPosLCD(0,0);
    1e40:	80 e0       	ldi	r24, 0x00	; 0
    1e42:	60 e0       	ldi	r22, 0x00	; 0
    1e44:	0e 94 64 08 	call	0x10c8	; 0x10c8 <setCursorPosLCD>
        writeStringLCD("L");
    1e48:	9e e7       	ldi	r25, 0x7E	; 126
    1e4a:	c9 2e       	mov	r12, r25
    1e4c:	90 e0       	ldi	r25, 0x00	; 0
    1e4e:	d9 2e       	mov	r13, r25
    1e50:	c6 01       	movw	r24, r12
    1e52:	0e 94 42 08 	call	0x1084	; 0x1084 <writeStringLCD>
        writeIntegerLCD(sensor->valueLeftFront,DEC);
    1e56:	f8 01       	movw	r30, r16
    1e58:	84 81       	ldd	r24, Z+4	; 0x04
    1e5a:	95 81       	ldd	r25, Z+5	; 0x05
    1e5c:	6a e0       	ldi	r22, 0x0A	; 10
    1e5e:	0e 94 22 0a 	call	0x1444	; 0x1444 <writeIntegerLCD>
        setCursorPosLCD(0,5);
    1e62:	80 e0       	ldi	r24, 0x00	; 0
    1e64:	65 e0       	ldi	r22, 0x05	; 5
    1e66:	0e 94 64 08 	call	0x10c8	; 0x10c8 <setCursorPosLCD>
        writeStringLCD("DL");
    1e6a:	80 e8       	ldi	r24, 0x80	; 128
    1e6c:	90 e0       	ldi	r25, 0x00	; 0
    1e6e:	0e 94 42 08 	call	0x1084	; 0x1084 <writeStringLCD>
        writeIntegerLCD(sensor->diffLeftSide,DEC);
    1e72:	f8 01       	movw	r30, r16
    1e74:	82 85       	ldd	r24, Z+10	; 0x0a
    1e76:	93 85       	ldd	r25, Z+11	; 0x0b
    1e78:	6a e0       	ldi	r22, 0x0A	; 10
    1e7a:	0e 94 22 0a 	call	0x1444	; 0x1444 <writeIntegerLCD>
        setCursorPosLCD(0,12);
    1e7e:	80 e0       	ldi	r24, 0x00	; 0
    1e80:	6c e0       	ldi	r22, 0x0C	; 12
    1e82:	0e 94 64 08 	call	0x10c8	; 0x10c8 <setCursorPosLCD>
        writeStringLCD("R");
    1e86:	83 e8       	ldi	r24, 0x83	; 131
    1e88:	e8 2e       	mov	r14, r24
    1e8a:	80 e0       	ldi	r24, 0x00	; 0
    1e8c:	f8 2e       	mov	r15, r24
    1e8e:	c7 01       	movw	r24, r14
    1e90:	0e 94 42 08 	call	0x1084	; 0x1084 <writeStringLCD>
        writeIntegerLCD(sensor->valueRightFront,DEC);
    1e94:	f8 01       	movw	r30, r16
    1e96:	80 81       	ld	r24, Z
    1e98:	91 81       	ldd	r25, Z+1	; 0x01
    1e9a:	6a e0       	ldi	r22, 0x0A	; 10
    1e9c:	0e 94 22 0a 	call	0x1444	; 0x1444 <writeIntegerLCD>
        setCursorPosLCD(1,0);
    1ea0:	81 e0       	ldi	r24, 0x01	; 1
    1ea2:	60 e0       	ldi	r22, 0x00	; 0
    1ea4:	0e 94 64 08 	call	0x10c8	; 0x10c8 <setCursorPosLCD>
        writeStringLCD("L");
    1ea8:	c6 01       	movw	r24, r12
    1eaa:	0e 94 42 08 	call	0x1084	; 0x1084 <writeStringLCD>
        writeIntegerLCD(sensor->valueLeftRear,DEC);
    1eae:	f8 01       	movw	r30, r16
    1eb0:	86 81       	ldd	r24, Z+6	; 0x06
    1eb2:	97 81       	ldd	r25, Z+7	; 0x07
    1eb4:	6a e0       	ldi	r22, 0x0A	; 10
    1eb6:	0e 94 22 0a 	call	0x1444	; 0x1444 <writeIntegerLCD>
        setCursorPosLCD(1,5);
    1eba:	81 e0       	ldi	r24, 0x01	; 1
    1ebc:	65 e0       	ldi	r22, 0x05	; 5
    1ebe:	0e 94 64 08 	call	0x10c8	; 0x10c8 <setCursorPosLCD>
        writeStringLCD("DR");
    1ec2:	85 e8       	ldi	r24, 0x85	; 133
    1ec4:	90 e0       	ldi	r25, 0x00	; 0
    1ec6:	0e 94 42 08 	call	0x1084	; 0x1084 <writeStringLCD>
        writeIntegerLCD(sensor->diffRightSide,DEC);
    1eca:	f8 01       	movw	r30, r16
    1ecc:	80 85       	ldd	r24, Z+8	; 0x08
    1ece:	91 85       	ldd	r25, Z+9	; 0x09
    1ed0:	6a e0       	ldi	r22, 0x0A	; 10
    1ed2:	0e 94 22 0a 	call	0x1444	; 0x1444 <writeIntegerLCD>
        setCursorPosLCD(1,12);
    1ed6:	81 e0       	ldi	r24, 0x01	; 1
    1ed8:	6c e0       	ldi	r22, 0x0C	; 12
    1eda:	0e 94 64 08 	call	0x10c8	; 0x10c8 <setCursorPosLCD>
        writeStringLCD("R");
    1ede:	c7 01       	movw	r24, r14
    1ee0:	0e 94 42 08 	call	0x1084	; 0x1084 <writeStringLCD>
        writeIntegerLCD(sensor->valueRightRear,DEC);
    1ee4:	f8 01       	movw	r30, r16
    1ee6:	82 81       	ldd	r24, Z+2	; 0x02
    1ee8:	93 81       	ldd	r25, Z+3	; 0x03
    1eea:	6a e0       	ldi	r22, 0x0A	; 10
    1eec:	0e 94 22 0a 	call	0x1444	; 0x1444 <writeIntegerLCD>
}
    1ef0:	1f 91       	pop	r17
    1ef2:	0f 91       	pop	r16
    1ef4:	ff 90       	pop	r15
    1ef6:	ef 90       	pop	r14
    1ef8:	df 90       	pop	r13
    1efa:	cf 90       	pop	r12
    1efc:	08 95       	ret

00001efe <readRearDistanceSensors>:
		setStopwatch1(0);
	}
}

void readRearDistanceSensors( uint16_t *rearLeft,uint16_t *rearRight)
{
    1efe:	ef 92       	push	r14
    1f00:	ff 92       	push	r15
    1f02:	0f 93       	push	r16
    1f04:	1f 93       	push	r17
    1f06:	8c 01       	movw	r16, r24
    1f08:	7b 01       	movw	r14, r22
    *rearLeft  = readADC(ADC_3);
    1f0a:	83 e0       	ldi	r24, 0x03	; 3
    1f0c:	0e 94 8f 06 	call	0xd1e	; 0xd1e <readADC>
    1f10:	f8 01       	movw	r30, r16
    1f12:	91 83       	std	Z+1, r25	; 0x01
    1f14:	80 83       	st	Z, r24
    *rearRight = readADC(ADC_2);
    1f16:	82 e0       	ldi	r24, 0x02	; 2
    1f18:	0e 94 8f 06 	call	0xd1e	; 0xd1e <readADC>
    1f1c:	f7 01       	movw	r30, r14
    1f1e:	91 83       	std	Z+1, r25	; 0x01
    1f20:	80 83       	st	Z, r24
}
    1f22:	1f 91       	pop	r17
    1f24:	0f 91       	pop	r16
    1f26:	ff 90       	pop	r15
    1f28:	ef 90       	pop	r14
    1f2a:	08 95       	ret

00001f2c <getSharpSensorInfo>:
        writeStringLCD("R");
        writeIntegerLCD(sensor->valueRightRear,DEC);
}

void getSharpSensorInfo( _ir_distance *sensor)
{
    1f2c:	0f 93       	push	r16
    1f2e:	1f 93       	push	r17
    1f30:	8c 01       	movw	r16, r24
    readFrontDistanceSensors(&sensor->valueLeftFront,&sensor->valueRightFront);
    1f32:	04 96       	adiw	r24, 0x04	; 4
    1f34:	b8 01       	movw	r22, r16
    1f36:	0e 94 58 10 	call	0x20b0	; 0x20b0 <readFrontDistanceSensors>
    readRearDistanceSensors(&sensor->valueLeftRear,&sensor->valueRightRear);
    1f3a:	b8 01       	movw	r22, r16
    1f3c:	6e 5f       	subi	r22, 0xFE	; 254
    1f3e:	7f 4f       	sbci	r23, 0xFF	; 255
    1f40:	c8 01       	movw	r24, r16
    1f42:	06 96       	adiw	r24, 0x06	; 6
    1f44:	0e 94 7f 0f 	call	0x1efe	; 0x1efe <readRearDistanceSensors>
    sensor->diffLeftSide = sensor->valueLeftRear - sensor->valueLeftFront;
    1f48:	f8 01       	movw	r30, r16
    1f4a:	86 81       	ldd	r24, Z+6	; 0x06
    1f4c:	97 81       	ldd	r25, Z+7	; 0x07
    1f4e:	24 81       	ldd	r18, Z+4	; 0x04
    1f50:	35 81       	ldd	r19, Z+5	; 0x05
    1f52:	82 1b       	sub	r24, r18
    1f54:	93 0b       	sbc	r25, r19
    1f56:	93 87       	std	Z+11, r25	; 0x0b
    1f58:	82 87       	std	Z+10, r24	; 0x0a
    sensor->diffRightSide= sensor->valueRightRear - sensor->valueRightFront;
    1f5a:	82 81       	ldd	r24, Z+2	; 0x02
    1f5c:	93 81       	ldd	r25, Z+3	; 0x03
    1f5e:	20 81       	ld	r18, Z
    1f60:	31 81       	ldd	r19, Z+1	; 0x01
    1f62:	82 1b       	sub	r24, r18
    1f64:	93 0b       	sbc	r25, r19
    1f66:	91 87       	std	Z+9, r25	; 0x09
    1f68:	80 87       	std	Z+8, r24	; 0x08

}
    1f6a:	1f 91       	pop	r17
    1f6c:	0f 91       	pop	r16
    1f6e:	08 95       	ret

00001f70 <runningLight>:
void runningLight(void)
{
    static uint8_t runLight = 1;
	static uint8_t dir;  // Moving direction for running light

	if(getStopwatch1() > 100) // 100ms
    1f70:	80 91 57 01 	lds	r24, 0x0157
    1f74:	90 91 58 01 	lds	r25, 0x0158
    1f78:	85 36       	cpi	r24, 0x65	; 101
    1f7a:	91 05       	cpc	r25, r1
    1f7c:	f8 f0       	brcs	.+62     	; 0x1fbc <runningLight+0x4c>
	{
		// Set status LEDs to the value of the variable testLEDs:
		setLEDs(runLight);
    1f7e:	80 91 88 00 	lds	r24, 0x0088
    1f82:	0e 94 6c 07 	call	0xed8	; 0xed8 <setLEDs>

		// Shift the LED bit left or right depending on direction:
		if(dir == 0)
    1f86:	80 91 dc 00 	lds	r24, 0x00DC
    1f8a:	90 91 88 00 	lds	r25, 0x0088
    1f8e:	88 23       	and	r24, r24
    1f90:	11 f4       	brne	.+4      	; 0x1f96 <runningLight+0x26>
			runLight <<= 1;
    1f92:	99 0f       	add	r25, r25
    1f94:	01 c0       	rjmp	.+2      	; 0x1f98 <runningLight+0x28>
		else
			runLight >>= 1;
    1f96:	96 95       	lsr	r25
    1f98:	90 93 88 00 	sts	0x0088, r25

		// Change the direction if we reached one of the two outer LEDs:
		if(runLight > 7 )
    1f9c:	80 91 88 00 	lds	r24, 0x0088
    1fa0:	88 30       	cpi	r24, 0x08	; 8
    1fa2:	20 f0       	brcs	.+8      	; 0x1fac <runningLight+0x3c>
			dir = 1;
    1fa4:	81 e0       	ldi	r24, 0x01	; 1
    1fa6:	80 93 dc 00 	sts	0x00DC, r24
    1faa:	04 c0       	rjmp	.+8      	; 0x1fb4 <runningLight+0x44>
		else if (runLight < 2 )
    1fac:	82 30       	cpi	r24, 0x02	; 2
    1fae:	10 f4       	brcc	.+4      	; 0x1fb4 <runningLight+0x44>
			dir = 0;
    1fb0:	10 92 dc 00 	sts	0x00DC, r1

		// Reset Stopwatch1:
		setStopwatch1(0);
    1fb4:	10 92 58 01 	sts	0x0158, r1
    1fb8:	10 92 57 01 	sts	0x0157, r1
    1fbc:	08 95       	ret

00001fbe <RP6_rotate>:
	I2CTWI_transmitBytes(I2C_RP6_BASE_ADR, transmit_buffer, 6 );
}

void RP6_rotate(uint8_t desired_speed, uint8_t dir, uint16_t angle)
{
	transmit_buffer[0] = 0;
    1fbe:	10 92 8e 01 	sts	0x018E, r1
	transmit_buffer[1] = CMD_ROTATE;
    1fc2:	98 e0       	ldi	r25, 0x08	; 8
    1fc4:	90 93 8f 01 	sts	0x018F, r25
	transmit_buffer[2] = desired_speed;
    1fc8:	80 93 90 01 	sts	0x0190, r24
	transmit_buffer[3] = dir;
    1fcc:	60 93 91 01 	sts	0x0191, r22
	transmit_buffer[4] = ((angle>>8) & 0xFF);
    1fd0:	50 93 92 01 	sts	0x0192, r21
	transmit_buffer[5] = (angle & 0xFF);
    1fd4:	40 93 93 01 	sts	0x0193, r20
	I2CTWI_transmitBytes(I2C_RP6_BASE_ADR, transmit_buffer, 6 );
    1fd8:	8a e0       	ldi	r24, 0x0A	; 10
    1fda:	6e e8       	ldi	r22, 0x8E	; 142
    1fdc:	71 e0       	ldi	r23, 0x01	; 1
    1fde:	46 e0       	ldi	r20, 0x06	; 6
    1fe0:	0e 94 0f 0e 	call	0x1c1e	; 0x1c1e <I2CTWI_transmitBytes>
}
    1fe4:	08 95       	ret

00001fe6 <moveAtSpeed>:
							 // A global variable saves space on the heap...


void moveAtSpeed(uint8_t desired_speed_left, uint8_t desired_speed_right)
{
    transmit_buffer[0] = 0;
    1fe6:	10 92 8e 01 	sts	0x018E, r1
	transmit_buffer[1] = CMD_MOVE_AT_SPEED;
    1fea:	95 e0       	ldi	r25, 0x05	; 5
    1fec:	90 93 8f 01 	sts	0x018F, r25
	transmit_buffer[2] = desired_speed_left;
    1ff0:	80 93 90 01 	sts	0x0190, r24
	transmit_buffer[3] = desired_speed_right;
    1ff4:	60 93 91 01 	sts	0x0191, r22
	transmit_buffer[4] = 0;
    1ff8:	10 92 92 01 	sts	0x0192, r1
	transmit_buffer[5] = 0;
    1ffc:	10 92 93 01 	sts	0x0193, r1
	I2CTWI_transmitBytes(I2C_RP6_BASE_ADR, transmit_buffer, 6 );
    2000:	8a e0       	ldi	r24, 0x0A	; 10
    2002:	6e e8       	ldi	r22, 0x8E	; 142
    2004:	71 e0       	ldi	r23, 0x01	; 1
    2006:	46 e0       	ldi	r20, 0x06	; 6
    2008:	0e 94 0f 0e 	call	0x1c1e	; 0x1c1e <I2CTWI_transmitBytes>
}
    200c:	08 95       	ret

0000200e <getMotorRightCurrent>:

    return ((tempArray[1]<<8)+tempArray[0]);
}

uint16_t getMotorRightCurrent()
{
    200e:	df 93       	push	r29
    2010:	cf 93       	push	r28
    2012:	00 d0       	rcall	.+0      	; 0x2014 <getMotorRightCurrent+0x6>
    2014:	cd b7       	in	r28, 0x3d	; 61
    2016:	de b7       	in	r29, 0x3e	; 62
    uint8_t tempArray[2];
    I2CTWI_transmitByte(I2C_RP6_BASE_ADR, 19);          // Start with register 19...
    2018:	8a e0       	ldi	r24, 0x0A	; 10
    201a:	63 e1       	ldi	r22, 0x13	; 19
    201c:	0e 94 46 0d 	call	0x1a8c	; 0x1a8c <I2CTWI_transmitByte>
    I2CTWI_readBytes(I2C_RP6_BASE_ADR,tempArray, 2);    // lees de 2 bytes
    2020:	8a e0       	ldi	r24, 0x0A	; 10
    2022:	be 01       	movw	r22, r28
    2024:	6f 5f       	subi	r22, 0xFF	; 255
    2026:	7f 4f       	sbci	r23, 0xFF	; 255
    2028:	42 e0       	ldi	r20, 0x02	; 2
    202a:	0e 94 c7 0c 	call	0x198e	; 0x198e <I2CTWI_readBytes>
    202e:	3a 81       	ldd	r19, Y+2	; 0x02
    2030:	20 e0       	ldi	r18, 0x00	; 0
    2032:	89 81       	ldd	r24, Y+1	; 0x01
    2034:	28 0f       	add	r18, r24
    2036:	31 1d       	adc	r19, r1

    return ((tempArray[1]<<8)+tempArray[0]);
}
    2038:	c9 01       	movw	r24, r18
    203a:	0f 90       	pop	r0
    203c:	0f 90       	pop	r0
    203e:	cf 91       	pop	r28
    2040:	df 91       	pop	r29
    2042:	08 95       	ret

00002044 <getMotorLeftCurrent>:

    return ((tempArray[1]<<8)+tempArray[0]);
}

uint16_t getMotorLeftCurrent()
{
    2044:	df 93       	push	r29
    2046:	cf 93       	push	r28
    2048:	00 d0       	rcall	.+0      	; 0x204a <getMotorLeftCurrent+0x6>
    204a:	cd b7       	in	r28, 0x3d	; 61
    204c:	de b7       	in	r29, 0x3e	; 62
    uint8_t tempArray[2];
    I2CTWI_transmitByte(I2C_RP6_BASE_ADR, 17);          // Start with register 17...
    204e:	8a e0       	ldi	r24, 0x0A	; 10
    2050:	61 e1       	ldi	r22, 0x11	; 17
    2052:	0e 94 46 0d 	call	0x1a8c	; 0x1a8c <I2CTWI_transmitByte>
    I2CTWI_readBytes(I2C_RP6_BASE_ADR,tempArray, 2);    // lees de 2 bytes
    2056:	8a e0       	ldi	r24, 0x0A	; 10
    2058:	be 01       	movw	r22, r28
    205a:	6f 5f       	subi	r22, 0xFF	; 255
    205c:	7f 4f       	sbci	r23, 0xFF	; 255
    205e:	42 e0       	ldi	r20, 0x02	; 2
    2060:	0e 94 c7 0c 	call	0x198e	; 0x198e <I2CTWI_readBytes>
    2064:	3a 81       	ldd	r19, Y+2	; 0x02
    2066:	20 e0       	ldi	r18, 0x00	; 0
    2068:	89 81       	ldd	r24, Y+1	; 0x01
    206a:	28 0f       	add	r18, r24
    206c:	31 1d       	adc	r19, r1

    return ((tempArray[1]<<8)+tempArray[0]);
}
    206e:	c9 01       	movw	r24, r18
    2070:	0f 90       	pop	r0
    2072:	0f 90       	pop	r0
    2074:	cf 91       	pop	r28
    2076:	df 91       	pop	r29
    2078:	08 95       	ret

0000207a <getbatteryLevel>:
        *frontLeft  = ((tempArray[1]<<8)+tempArray[0]); //combineer de lage en de hoge byte tot 1 16 bit int
        *frontRight = ((tempArray[3]<<8)+tempArray[2]);
}

uint16_t getbatteryLevel()
{
    207a:	df 93       	push	r29
    207c:	cf 93       	push	r28
    207e:	00 d0       	rcall	.+0      	; 0x2080 <getbatteryLevel+0x6>
    2080:	cd b7       	in	r28, 0x3d	; 61
    2082:	de b7       	in	r29, 0x3e	; 62
    uint8_t tempArray[2];
    I2CTWI_transmitByte(I2C_RP6_BASE_ADR, 21);          // Start with register 21...
    2084:	8a e0       	ldi	r24, 0x0A	; 10
    2086:	65 e1       	ldi	r22, 0x15	; 21
    2088:	0e 94 46 0d 	call	0x1a8c	; 0x1a8c <I2CTWI_transmitByte>
    I2CTWI_readBytes(I2C_RP6_BASE_ADR,tempArray, 2);    // lees de 2 bytes
    208c:	8a e0       	ldi	r24, 0x0A	; 10
    208e:	be 01       	movw	r22, r28
    2090:	6f 5f       	subi	r22, 0xFF	; 255
    2092:	7f 4f       	sbci	r23, 0xFF	; 255
    2094:	42 e0       	ldi	r20, 0x02	; 2
    2096:	0e 94 c7 0c 	call	0x198e	; 0x198e <I2CTWI_readBytes>
    209a:	3a 81       	ldd	r19, Y+2	; 0x02
    209c:	20 e0       	ldi	r18, 0x00	; 0
    209e:	89 81       	ldd	r24, Y+1	; 0x01
    20a0:	28 0f       	add	r18, r24
    20a2:	31 1d       	adc	r19, r1

    return ((tempArray[1]<<8)+tempArray[0]);
}
    20a4:	c9 01       	movw	r24, r18
    20a6:	0f 90       	pop	r0
    20a8:	0f 90       	pop	r0
    20aa:	cf 91       	pop	r28
    20ac:	df 91       	pop	r29
    20ae:	08 95       	ret

000020b0 <readFrontDistanceSensors>:
}



void readFrontDistanceSensors(uint16_t *frontLeft,uint16_t *frontRight )
{
    20b0:	ef 92       	push	r14
    20b2:	ff 92       	push	r15
    20b4:	0f 93       	push	r16
    20b6:	1f 93       	push	r17
    20b8:	df 93       	push	r29
    20ba:	cf 93       	push	r28
    20bc:	00 d0       	rcall	.+0      	; 0x20be <readFrontDistanceSensors+0xe>
    20be:	0f 92       	push	r0
    20c0:	cd b7       	in	r28, 0x3d	; 61
    20c2:	de b7       	in	r29, 0x3e	; 62
    20c4:	8c 01       	movw	r16, r24
    20c6:	7b 01       	movw	r14, r22
    uint8_t tempArray[3];
//        I2C_REG_ADC_ADC0_L 		 23
//        I2C_REG_ADC_ADC0_H 		 24
//        I2C_REG_ADC_ADC1_L 		 25
//        I2C_REG_ADC_ADC1_H 		 26
        I2CTWI_transmitByte(I2C_RP6_BASE_ADR, 23);          // Start with register 23...
    20c8:	8a e0       	ldi	r24, 0x0A	; 10
    20ca:	67 e1       	ldi	r22, 0x17	; 23
    20cc:	0e 94 46 0d 	call	0x1a8c	; 0x1a8c <I2CTWI_transmitByte>
        I2CTWI_readBytes(I2C_RP6_BASE_ADR,tempArray, 4);    // lees de 4 bytes van ADC0_L ADC0_H ADC1L ADC1_H
    20d0:	8a e0       	ldi	r24, 0x0A	; 10
    20d2:	be 01       	movw	r22, r28
    20d4:	6f 5f       	subi	r22, 0xFF	; 255
    20d6:	7f 4f       	sbci	r23, 0xFF	; 255
    20d8:	44 e0       	ldi	r20, 0x04	; 4
    20da:	0e 94 c7 0c 	call	0x198e	; 0x198e <I2CTWI_readBytes>

        *frontLeft  = ((tempArray[1]<<8)+tempArray[0]); //combineer de lage en de hoge byte tot 1 16 bit int
    20de:	9a 81       	ldd	r25, Y+2	; 0x02
    20e0:	80 e0       	ldi	r24, 0x00	; 0
    20e2:	29 81       	ldd	r18, Y+1	; 0x01
    20e4:	82 0f       	add	r24, r18
    20e6:	91 1d       	adc	r25, r1
    20e8:	f8 01       	movw	r30, r16
    20ea:	91 83       	std	Z+1, r25	; 0x01
    20ec:	80 83       	st	Z, r24
        *frontRight = ((tempArray[3]<<8)+tempArray[2]);
    20ee:	9c 81       	ldd	r25, Y+4	; 0x04
    20f0:	80 e0       	ldi	r24, 0x00	; 0
    20f2:	2b 81       	ldd	r18, Y+3	; 0x03
    20f4:	82 0f       	add	r24, r18
    20f6:	91 1d       	adc	r25, r1
    20f8:	f7 01       	movw	r30, r14
    20fa:	91 83       	std	Z+1, r25	; 0x01
    20fc:	80 83       	st	Z, r24
}
    20fe:	0f 90       	pop	r0
    2100:	0f 90       	pop	r0
    2102:	0f 90       	pop	r0
    2104:	cf 91       	pop	r28
    2106:	df 91       	pop	r29
    2108:	1f 91       	pop	r17
    210a:	0f 91       	pop	r16
    210c:	ff 90       	pop	r15
    210e:	ef 90       	pop	r14
    2110:	08 95       	ret

00002112 <I2C_transmissionError>:
#include "I2Cmaster.h"


void I2C_transmissionError(uint8_t errorState)
{
    switch(errorState)
    2112:	88 36       	cpi	r24, 0x68	; 104
    2114:	09 f4       	brne	.+2      	; 0x2118 <I2C_transmissionError+0x6>
    2116:	94 c0       	rjmp	.+296    	; 0x2240 <I2C_transmissionError+0x12e>
    2118:	89 36       	cpi	r24, 0x69	; 105
    211a:	88 f5       	brcc	.+98     	; 0x217e <I2C_transmissionError+0x6c>
    211c:	80 33       	cpi	r24, 0x30	; 48
    211e:	09 f4       	brne	.+2      	; 0x2122 <I2C_transmissionError+0x10>
    2120:	6e c0       	rjmp	.+220    	; 0x21fe <I2C_transmissionError+0xec>
    2122:	81 33       	cpi	r24, 0x31	; 49
    2124:	b0 f4       	brcc	.+44     	; 0x2152 <I2C_transmissionError+0x40>
    2126:	80 31       	cpi	r24, 0x10	; 16
    2128:	09 f4       	brne	.+2      	; 0x212c <I2C_transmissionError+0x1a>
    212a:	5a c0       	rjmp	.+180    	; 0x21e0 <I2C_transmissionError+0xce>
    212c:	81 31       	cpi	r24, 0x11	; 17
    212e:	38 f4       	brcc	.+14     	; 0x213e <I2C_transmissionError+0x2c>
    2130:	88 23       	and	r24, r24
    2132:	09 f4       	brne	.+2      	; 0x2136 <I2C_transmissionError+0x24>
    2134:	a0 c0       	rjmp	.+320    	; 0x2276 <I2C_transmissionError+0x164>
    2136:	88 30       	cpi	r24, 0x08	; 8
    2138:	09 f0       	breq	.+2      	; 0x213c <I2C_transmissionError+0x2a>
    213a:	a0 c0       	rjmp	.+320    	; 0x227c <I2C_transmissionError+0x16a>
    213c:	4e c0       	rjmp	.+156    	; 0x21da <I2C_transmissionError+0xc8>
    213e:	80 32       	cpi	r24, 0x20	; 32
    2140:	09 f4       	brne	.+2      	; 0x2144 <I2C_transmissionError+0x32>
    2142:	54 c0       	rjmp	.+168    	; 0x21ec <I2C_transmissionError+0xda>
    2144:	88 32       	cpi	r24, 0x28	; 40
    2146:	09 f4       	brne	.+2      	; 0x214a <I2C_transmissionError+0x38>
    2148:	57 c0       	rjmp	.+174    	; 0x21f8 <I2C_transmissionError+0xe6>
    214a:	88 31       	cpi	r24, 0x18	; 24
    214c:	09 f0       	breq	.+2      	; 0x2150 <I2C_transmissionError+0x3e>
    214e:	96 c0       	rjmp	.+300    	; 0x227c <I2C_transmissionError+0x16a>
    2150:	50 c0       	rjmp	.+160    	; 0x21f2 <I2C_transmissionError+0xe0>
    2152:	88 34       	cpi	r24, 0x48	; 72
    2154:	09 f4       	brne	.+2      	; 0x2158 <I2C_transmissionError+0x46>
    2156:	59 c0       	rjmp	.+178    	; 0x220a <I2C_transmissionError+0xf8>
    2158:	89 34       	cpi	r24, 0x49	; 73
    215a:	38 f4       	brcc	.+14     	; 0x216a <I2C_transmissionError+0x58>
    215c:	88 33       	cpi	r24, 0x38	; 56
    215e:	09 f4       	brne	.+2      	; 0x2162 <I2C_transmissionError+0x50>
    2160:	42 c0       	rjmp	.+132    	; 0x21e6 <I2C_transmissionError+0xd4>
    2162:	80 34       	cpi	r24, 0x40	; 64
    2164:	09 f0       	breq	.+2      	; 0x2168 <I2C_transmissionError+0x56>
    2166:	8a c0       	rjmp	.+276    	; 0x227c <I2C_transmissionError+0x16a>
    2168:	4d c0       	rjmp	.+154    	; 0x2204 <I2C_transmissionError+0xf2>
    216a:	88 35       	cpi	r24, 0x58	; 88
    216c:	09 f4       	brne	.+2      	; 0x2170 <I2C_transmissionError+0x5e>
    216e:	53 c0       	rjmp	.+166    	; 0x2216 <I2C_transmissionError+0x104>
    2170:	80 36       	cpi	r24, 0x60	; 96
    2172:	09 f4       	brne	.+2      	; 0x2176 <I2C_transmissionError+0x64>
    2174:	62 c0       	rjmp	.+196    	; 0x223a <I2C_transmissionError+0x128>
    2176:	80 35       	cpi	r24, 0x50	; 80
    2178:	09 f0       	breq	.+2      	; 0x217c <I2C_transmissionError+0x6a>
    217a:	80 c0       	rjmp	.+256    	; 0x227c <I2C_transmissionError+0x16a>
    217c:	49 c0       	rjmp	.+146    	; 0x2210 <I2C_transmissionError+0xfe>
    217e:	80 3a       	cpi	r24, 0xA0	; 160
    2180:	09 f4       	brne	.+2      	; 0x2184 <I2C_transmissionError+0x72>
    2182:	73 c0       	rjmp	.+230    	; 0x226a <I2C_transmissionError+0x158>
    2184:	81 3a       	cpi	r24, 0xA1	; 161
    2186:	b0 f4       	brcc	.+44     	; 0x21b4 <I2C_transmissionError+0xa2>
    2188:	80 38       	cpi	r24, 0x80	; 128
    218a:	09 f4       	brne	.+2      	; 0x218e <I2C_transmissionError+0x7c>
    218c:	62 c0       	rjmp	.+196    	; 0x2252 <I2C_transmissionError+0x140>
    218e:	81 38       	cpi	r24, 0x81	; 129
    2190:	38 f4       	brcc	.+14     	; 0x21a0 <I2C_transmissionError+0x8e>
    2192:	80 37       	cpi	r24, 0x70	; 112
    2194:	09 f4       	brne	.+2      	; 0x2198 <I2C_transmissionError+0x86>
    2196:	57 c0       	rjmp	.+174    	; 0x2246 <I2C_transmissionError+0x134>
    2198:	88 37       	cpi	r24, 0x78	; 120
    219a:	09 f0       	breq	.+2      	; 0x219e <I2C_transmissionError+0x8c>
    219c:	6f c0       	rjmp	.+222    	; 0x227c <I2C_transmissionError+0x16a>
    219e:	56 c0       	rjmp	.+172    	; 0x224c <I2C_transmissionError+0x13a>
    21a0:	80 39       	cpi	r24, 0x90	; 144
    21a2:	09 f4       	brne	.+2      	; 0x21a6 <I2C_transmissionError+0x94>
    21a4:	5c c0       	rjmp	.+184    	; 0x225e <I2C_transmissionError+0x14c>
    21a6:	88 39       	cpi	r24, 0x98	; 152
    21a8:	09 f4       	brne	.+2      	; 0x21ac <I2C_transmissionError+0x9a>
    21aa:	5c c0       	rjmp	.+184    	; 0x2264 <I2C_transmissionError+0x152>
    21ac:	88 38       	cpi	r24, 0x88	; 136
    21ae:	09 f0       	breq	.+2      	; 0x21b2 <I2C_transmissionError+0xa0>
    21b0:	65 c0       	rjmp	.+202    	; 0x227c <I2C_transmissionError+0x16a>
    21b2:	52 c0       	rjmp	.+164    	; 0x2258 <I2C_transmissionError+0x146>
    21b4:	88 3b       	cpi	r24, 0xB8	; 184
    21b6:	c1 f1       	breq	.+112    	; 0x2228 <I2C_transmissionError+0x116>
    21b8:	89 3b       	cpi	r24, 0xB9	; 185
    21ba:	30 f4       	brcc	.+12     	; 0x21c8 <I2C_transmissionError+0xb6>
    21bc:	88 3a       	cpi	r24, 0xA8	; 168
    21be:	71 f1       	breq	.+92     	; 0x221c <I2C_transmissionError+0x10a>
    21c0:	80 3b       	cpi	r24, 0xB0	; 176
    21c2:	09 f0       	breq	.+2      	; 0x21c6 <I2C_transmissionError+0xb4>
    21c4:	5b c0       	rjmp	.+182    	; 0x227c <I2C_transmissionError+0x16a>
    21c6:	2d c0       	rjmp	.+90     	; 0x2222 <I2C_transmissionError+0x110>
    21c8:	88 3c       	cpi	r24, 0xC8	; 200
    21ca:	a1 f1       	breq	.+104    	; 0x2234 <I2C_transmissionError+0x122>
    21cc:	88 3f       	cpi	r24, 0xF8	; 248
    21ce:	09 f4       	brne	.+2      	; 0x21d2 <I2C_transmissionError+0xc0>
    21d0:	4f c0       	rjmp	.+158    	; 0x2270 <I2C_transmissionError+0x15e>
    21d2:	80 3c       	cpi	r24, 0xC0	; 192
    21d4:	09 f0       	breq	.+2      	; 0x21d8 <I2C_transmissionError+0xc6>
    21d6:	52 c0       	rjmp	.+164    	; 0x227c <I2C_transmissionError+0x16a>
    21d8:	2a c0       	rjmp	.+84     	; 0x222e <I2C_transmissionError+0x11c>
	{
	case 0x08:	writeString_P("\nI2C ERROR - 0x08 START has been transmitted\n"); break;
    21da:	82 ec       	ldi	r24, 0xC2	; 194
    21dc:	98 e0       	ldi	r25, 0x08	; 8
    21de:	50 c0       	rjmp	.+160    	; 0x2280 <I2C_transmissionError+0x16e>
	case 0x10: 	writeString_P("\nI2C ERROR - 0x10 Repeated START has been transmitted\n"); break;
    21e0:	8b e8       	ldi	r24, 0x8B	; 139
    21e2:	98 e0       	ldi	r25, 0x08	; 8
    21e4:	4d c0       	rjmp	.+154    	; 0x2280 <I2C_transmissionError+0x16e>
	case 0x38: 	writeString_P("\nI2C ERROR - 0x38 Arbitration lost\n"); break;
    21e6:	87 e6       	ldi	r24, 0x67	; 103
    21e8:	98 e0       	ldi	r25, 0x08	; 8
    21ea:	4a c0       	rjmp	.+148    	; 0x2280 <I2C_transmissionError+0x16e>
	case 0x20: 	writeString_P("\nI2C ERROR - 0x20 SLA+W has been transmitted and NACK received\n"); break;
    21ec:	87 e2       	ldi	r24, 0x27	; 39
    21ee:	98 e0       	ldi	r25, 0x08	; 8
    21f0:	47 c0       	rjmp	.+142    	; 0x2280 <I2C_transmissionError+0x16e>
	case 0x18: 	writeString_P("\nI2C ERROR - 0x18 SLA+W has been transmitted and ACK received\n"); break;
    21f2:	88 ee       	ldi	r24, 0xE8	; 232
    21f4:	97 e0       	ldi	r25, 0x07	; 7
    21f6:	44 c0       	rjmp	.+136    	; 0x2280 <I2C_transmissionError+0x16e>
	case 0x28: 	writeString_P("\nI2C ERROR - 0x28 Data byte has been transmitted and ACK received\n"); break;
    21f8:	85 ea       	ldi	r24, 0xA5	; 165
    21fa:	97 e0       	ldi	r25, 0x07	; 7
    21fc:	41 c0       	rjmp	.+130    	; 0x2280 <I2C_transmissionError+0x16e>
	case 0x30: 	writeString_P("\nI2C ERROR - 0x30 Data byte has been transmitted and NACK received\n"); break;
    21fe:	81 e6       	ldi	r24, 0x61	; 97
    2200:	97 e0       	ldi	r25, 0x07	; 7
    2202:	3e c0       	rjmp	.+124    	; 0x2280 <I2C_transmissionError+0x16e>
	case 0x40: 	writeString_P("\nI2C ERROR - 0x40 SLA+R has been transmitted and ACK received\n"); break;
    2204:	82 e2       	ldi	r24, 0x22	; 34
    2206:	97 e0       	ldi	r25, 0x07	; 7
    2208:	3b c0       	rjmp	.+118    	; 0x2280 <I2C_transmissionError+0x16e>
	case 0x48:	writeString_P("\nI2C ERROR - 0x48 SLA+R has been transmitted and NACK received\n"); break;
    220a:	82 ee       	ldi	r24, 0xE2	; 226
    220c:	96 e0       	ldi	r25, 0x06	; 6
    220e:	38 c0       	rjmp	.+112    	; 0x2280 <I2C_transmissionError+0x16e>
	case 0x50: 	writeString_P("\nI2C ERROR - 0x50 Data byte has been received and ACK transmitted\n"); break;
    2210:	8f e9       	ldi	r24, 0x9F	; 159
    2212:	96 e0       	ldi	r25, 0x06	; 6
    2214:	35 c0       	rjmp	.+106    	; 0x2280 <I2C_transmissionError+0x16e>
	case 0x58: 	writeString_P("\nI2C ERROR - 0x58 Data byte has been received and NACK transmitted\n"); break;
    2216:	8b e5       	ldi	r24, 0x5B	; 91
    2218:	96 e0       	ldi	r25, 0x06	; 6
    221a:	32 c0       	rjmp	.+100    	; 0x2280 <I2C_transmissionError+0x16e>
	case 0xA8: 	writeString_P("\nI2C ERROR - 0xA8 Own SLA+R has been received; ACK has been returned\n"); break;
    221c:	85 e1       	ldi	r24, 0x15	; 21
    221e:	96 e0       	ldi	r25, 0x06	; 6
    2220:	2f c0       	rjmp	.+94     	; 0x2280 <I2C_transmissionError+0x16e>
	case 0xB0: 	writeString_P("\nI2C ERROR - 0xB0 Arbitration lost in SLA+R/W as Master; own SLA+R has been received; ACK has been returned\n"); break;
    2222:	88 ea       	ldi	r24, 0xA8	; 168
    2224:	95 e0       	ldi	r25, 0x05	; 5
    2226:	2c c0       	rjmp	.+88     	; 0x2280 <I2C_transmissionError+0x16e>
	case 0xB8: 	writeString_P("\nI2C ERROR - 0xB8 Data byte in TWDR has been transmitted; ACK has been received\n"); break;
    2228:	87 e5       	ldi	r24, 0x57	; 87
    222a:	95 e0       	ldi	r25, 0x05	; 5
    222c:	29 c0       	rjmp	.+82     	; 0x2280 <I2C_transmissionError+0x16e>
	case 0xC0: 	writeString_P("\nI2C ERROR - 0xC0 Data byte in TWDR has been transmitted; NOT ACK has been received\n"); break;
    222e:	82 e0       	ldi	r24, 0x02	; 2
    2230:	95 e0       	ldi	r25, 0x05	; 5
    2232:	26 c0       	rjmp	.+76     	; 0x2280 <I2C_transmissionError+0x16e>
	case 0xC8: 	writeString_P("\nI2C ERROR - 0xC8 Last data byte in TWDR has been transmitted (TWEA = 0); ACK has been received\n"); break;
    2234:	8f e9       	ldi	r24, 0x9F	; 159
    2236:	94 e0       	ldi	r25, 0x04	; 4
    2238:	23 c0       	rjmp	.+70     	; 0x2280 <I2C_transmissionError+0x16e>
	case 0x60:	writeString_P("\nI2C ERROR - 0x60 Own SLA+W has been received ACK has been returned\n"); break;
    223a:	8a e5       	ldi	r24, 0x5A	; 90
    223c:	94 e0       	ldi	r25, 0x04	; 4
    223e:	20 c0       	rjmp	.+64     	; 0x2280 <I2C_transmissionError+0x16e>
	case 0x68: 	writeString_P("\nI2C ERROR - 0x68 Arbitration lost in SLA+R/W as Master; own SLA+W has been received; ACK has been returned\n"); break;
    2240:	8d ee       	ldi	r24, 0xED	; 237
    2242:	93 e0       	ldi	r25, 0x03	; 3
    2244:	1d c0       	rjmp	.+58     	; 0x2280 <I2C_transmissionError+0x16e>
	case 0x70: 	writeString_P("\nI2C ERROR - 0x70 General call address has been received; ACK has been returned\n"); break;
    2246:	8c e9       	ldi	r24, 0x9C	; 156
    2248:	93 e0       	ldi	r25, 0x03	; 3
    224a:	1a c0       	rjmp	.+52     	; 0x2280 <I2C_transmissionError+0x16e>
	case 0x78: 	writeString_P("\nI2C ERROR - 0x78 Arbitration lost in SLA+R/W as Master; General call address has been received; ACK has been returned\n"); break;
    224c:	84 e2       	ldi	r24, 0x24	; 36
    224e:	93 e0       	ldi	r25, 0x03	; 3
    2250:	17 c0       	rjmp	.+46     	; 0x2280 <I2C_transmissionError+0x16e>
	case 0x80: 	writeString_P("\nI2C ERROR - 0x80 Previously addressed with own SLA+W; data has been received; ACK has been returned\n"); break;
    2252:	8e eb       	ldi	r24, 0xBE	; 190
    2254:	92 e0       	ldi	r25, 0x02	; 2
    2256:	14 c0       	rjmp	.+40     	; 0x2280 <I2C_transmissionError+0x16e>
	case 0x88: 	writeString_P("\nI2C ERROR - 0x88 Previously addressed with own SLA+W; data has been received; NOT ACK has been returned\n"); break;
    2258:	84 e5       	ldi	r24, 0x54	; 84
    225a:	92 e0       	ldi	r25, 0x02	; 2
    225c:	11 c0       	rjmp	.+34     	; 0x2280 <I2C_transmissionError+0x16e>
	case 0x90: 	writeString_P("\nI2C ERROR - 0x90 Previously addressed with general call; data has been received; ACK has been returned\n"); break;
    225e:	8b ee       	ldi	r24, 0xEB	; 235
    2260:	91 e0       	ldi	r25, 0x01	; 1
    2262:	0e c0       	rjmp	.+28     	; 0x2280 <I2C_transmissionError+0x16e>
	case 0x98: 	writeString_P("\nI2C ERROR - 0x98 Previously addressed with general call; data has been received; NOT ACK has been returned\n"); break;
    2264:	8e e7       	ldi	r24, 0x7E	; 126
    2266:	91 e0       	ldi	r25, 0x01	; 1
    2268:	0b c0       	rjmp	.+22     	; 0x2280 <I2C_transmissionError+0x16e>
	case 0xA0:	writeString_P("\nI2C ERROR - 0xA0 A STOP condition or repeated START condition has been received while still addressed as Slave\n"); break;
    226a:	8d e0       	ldi	r24, 0x0D	; 13
    226c:	91 e0       	ldi	r25, 0x01	; 1
    226e:	08 c0       	rjmp	.+16     	; 0x2280 <I2C_transmissionError+0x16e>
	case 0xF8: 	writeString_P("\nI2C ERROR - 0xF8 No relevant state information available; TWINT = 0\n"); break;
    2270:	85 ec       	ldi	r24, 0xC5	; 197
    2272:	90 e0       	ldi	r25, 0x00	; 0
    2274:	05 c0       	rjmp	.+10     	; 0x2280 <I2C_transmissionError+0x16e>
	case 0x00: 	writeString_P("\nI2C ERROR - 0x00 Bus error due to an illegal START or STOP condition\n"); break;
    2276:	8e e7       	ldi	r24, 0x7E	; 126
    2278:	90 e0       	ldi	r25, 0x00	; 0
    227a:	02 c0       	rjmp	.+4      	; 0x2280 <I2C_transmissionError+0x16e>
	default	 :	writeString_P("\nAll oke\n"); break;
    227c:	84 e7       	ldi	r24, 0x74	; 116
    227e:	90 e0       	ldi	r25, 0x00	; 0
    2280:	0e 94 81 0a 	call	0x1502	; 0x1502 <writeNStringP>
    2284:	08 95       	ret

00002286 <readAllRegisters>:

					 // It is better to keep such big arrays GLOBAL as
					 // they otherwise fill up the stack in memory...

void readAllRegisters(void)
{
    2286:	cf 93       	push	r28
    2288:	df 93       	push	r29

	I2CTWI_transmitByte(I2C_RP6_BASE_ADR, 0);       // Start with register 0...
    228a:	8a e0       	ldi	r24, 0x0A	; 10
    228c:	60 e0       	ldi	r22, 0x00	; 0
    228e:	0e 94 46 0d 	call	0x1a8c	; 0x1a8c <I2CTWI_transmitByte>
	I2CTWI_readBytes(I2C_RP6_BASE_ADR,RP6data, 30); // and read all 30 registers up to
    2292:	8a e0       	ldi	r24, 0x0A	; 10
    2294:	68 e9       	ldi	r22, 0x98	; 152
    2296:	71 e0       	ldi	r23, 0x01	; 1
    2298:	4e e1       	ldi	r20, 0x1E	; 30
    229a:	0e 94 c7 0c 	call	0x198e	; 0x198e <I2CTWI_readBytes>
													// register Number 29 !

	// Now we output the Data we have just read on the serial interface:
	writeString_P("\nREADING ALL RP6 REGISTERS:");
    229e:	88 e5       	ldi	r24, 0x58	; 88
    22a0:	90 e0       	ldi	r25, 0x00	; 0
    22a2:	0e 94 81 0a 	call	0x1502	; 0x1502 <writeNStringP>
    22a6:	c0 e0       	ldi	r28, 0x00	; 0
    22a8:	d0 e0       	ldi	r29, 0x00	; 0
	uint8_t i = 0;
	for(i = 0; i < 30; i++)
	{
		if(i % 8 == 0) 		  // add some newline chars otherwise everything
    22aa:	ce 01       	movw	r24, r28
    22ac:	87 70       	andi	r24, 0x07	; 7
    22ae:	90 70       	andi	r25, 0x00	; 0
    22b0:	89 2b       	or	r24, r25
    22b2:	21 f4       	brne	.+8      	; 0x22bc <readAllRegisters+0x36>
        {
            writeChar('\n');  // is printed on ONE single line...
    22b4:	8a e0       	ldi	r24, 0x0A	; 10
    22b6:	0e 94 73 0a 	call	0x14e6	; 0x14e6 <writeChar>
    22ba:	04 c0       	rjmp	.+8      	; 0x22c4 <readAllRegisters+0x3e>
        }
		else
        {
           writeString_P(" | ");
    22bc:	84 e5       	ldi	r24, 0x54	; 84
    22be:	90 e0       	ldi	r25, 0x00	; 0
    22c0:	0e 94 81 0a 	call	0x1502	; 0x1502 <writeNStringP>
        }

        writeChar('#');
    22c4:	83 e2       	ldi	r24, 0x23	; 35
    22c6:	0e 94 73 0a 	call	0x14e6	; 0x14e6 <writeChar>
        writeIntegerLength(i,DEC,2);
    22ca:	ce 01       	movw	r24, r28
    22cc:	6a e0       	ldi	r22, 0x0A	; 10
    22ce:	42 e0       	ldi	r20, 0x02	; 2
    22d0:	0e 94 4b 0b 	call	0x1696	; 0x1696 <writeIntegerLength>
        writeChar(':');
    22d4:	8a e3       	ldi	r24, 0x3A	; 58
    22d6:	0e 94 73 0a 	call	0x14e6	; 0x14e6 <writeChar>
        writeIntegerLength(RP6data[i],DEC,3);
    22da:	fe 01       	movw	r30, r28
    22dc:	e8 56       	subi	r30, 0x68	; 104
    22de:	fe 4f       	sbci	r31, 0xFE	; 254
    22e0:	80 81       	ld	r24, Z
    22e2:	90 e0       	ldi	r25, 0x00	; 0
    22e4:	6a e0       	ldi	r22, 0x0A	; 10
    22e6:	43 e0       	ldi	r20, 0x03	; 3
    22e8:	0e 94 4b 0b 	call	0x1696	; 0x1696 <writeIntegerLength>
    22ec:	21 96       	adiw	r28, 0x01	; 1
													// register Number 29 !

	// Now we output the Data we have just read on the serial interface:
	writeString_P("\nREADING ALL RP6 REGISTERS:");
	uint8_t i = 0;
	for(i = 0; i < 30; i++)
    22ee:	ce 31       	cpi	r28, 0x1E	; 30
    22f0:	d1 05       	cpc	r29, r1
    22f2:	d9 f6       	brne	.-74     	; 0x22aa <readAllRegisters+0x24>
        writeChar('#');
        writeIntegerLength(i,DEC,2);
        writeChar(':');
        writeIntegerLength(RP6data[i],DEC,3);
	}
	writeChar('\n');
    22f4:	8a e0       	ldi	r24, 0x0A	; 10
    22f6:	0e 94 73 0a 	call	0x14e6	; 0x14e6 <writeChar>
}
    22fa:	df 91       	pop	r29
    22fc:	cf 91       	pop	r28
    22fe:	08 95       	ret

00002300 <pidController>:

//* PID regelaar
/*  De regelaar update wordt bepaald door de stopwatch die deze functie aan roept.
*/
void pidController(_Values *pidValues  )
{
    2300:	8f 92       	push	r8
    2302:	9f 92       	push	r9
    2304:	af 92       	push	r10
    2306:	bf 92       	push	r11
    2308:	cf 92       	push	r12
    230a:	df 92       	push	r13
    230c:	ef 92       	push	r14
    230e:	ff 92       	push	r15
    2310:	0f 93       	push	r16
    2312:	1f 93       	push	r17
    2314:	6c 01       	movw	r12, r24
    double error, integral, kp , ki , kd ;
    static double last;
    const double intThresh = 2.0;

    // begin van de code
    error = (pidValues->setpoint) - (pidValues->pocessValue);
    2316:	fc 01       	movw	r30, r24
    2318:	80 80       	ld	r8, Z
    231a:	91 80       	ldd	r9, Z+1	; 0x01
    231c:	a2 80       	ldd	r10, Z+2	; 0x02
    231e:	b3 80       	ldd	r11, Z+3	; 0x03
    }

    kp = error * pidValues->kpFactor;
    ki = integral * pidValues->tiFactor;
    kd = (last - pidValues->pocessValue) * pidValues->tdFactor;
    pidValues->pocessValue = kp + ki + kd ;
    2320:	64 81       	ldd	r22, Z+4	; 0x04
    2322:	75 81       	ldd	r23, Z+5	; 0x05
    2324:	86 81       	ldd	r24, Z+6	; 0x06
    2326:	97 81       	ldd	r25, Z+7	; 0x07
    2328:	a5 01       	movw	r20, r10
    232a:	94 01       	movw	r18, r8
    232c:	0e 94 64 14 	call	0x28c8	; 0x28c8 <__subsf3>
    2330:	f6 01       	movw	r30, r12
    2332:	20 89       	ldd	r18, Z+16	; 0x10
    2334:	31 89       	ldd	r19, Z+17	; 0x11
    2336:	42 89       	ldd	r20, Z+18	; 0x12
    2338:	53 89       	ldd	r21, Z+19	; 0x13
    233a:	0e 94 57 15 	call	0x2aae	; 0x2aae <__mulsf3>
    233e:	7b 01       	movw	r14, r22
    2340:	8c 01       	movw	r16, r24
    2342:	f6 01       	movw	r30, r12
    2344:	24 89       	ldd	r18, Z+20	; 0x14
    2346:	35 89       	ldd	r19, Z+21	; 0x15
    2348:	46 89       	ldd	r20, Z+22	; 0x16
    234a:	57 89       	ldd	r21, Z+23	; 0x17
    234c:	ca 01       	movw	r24, r20
    234e:	b9 01       	movw	r22, r18
    2350:	0e 94 65 14 	call	0x28ca	; 0x28ca <__addsf3>
    2354:	9b 01       	movw	r18, r22
    2356:	ac 01       	movw	r20, r24
    2358:	c8 01       	movw	r24, r16
    235a:	b7 01       	movw	r22, r14
    235c:	0e 94 65 14 	call	0x28ca	; 0x28ca <__addsf3>
    2360:	7b 01       	movw	r14, r22
    2362:	8c 01       	movw	r16, r24
    2364:	60 91 dd 00 	lds	r22, 0x00DD
    2368:	70 91 de 00 	lds	r23, 0x00DE
    236c:	80 91 df 00 	lds	r24, 0x00DF
    2370:	90 91 e0 00 	lds	r25, 0x00E0
    2374:	a5 01       	movw	r20, r10
    2376:	94 01       	movw	r18, r8
    2378:	0e 94 64 14 	call	0x28c8	; 0x28c8 <__subsf3>
    237c:	f6 01       	movw	r30, r12
    237e:	20 8d       	ldd	r18, Z+24	; 0x18
    2380:	31 8d       	ldd	r19, Z+25	; 0x19
    2382:	42 8d       	ldd	r20, Z+26	; 0x1a
    2384:	53 8d       	ldd	r21, Z+27	; 0x1b
    2386:	0e 94 57 15 	call	0x2aae	; 0x2aae <__mulsf3>
    238a:	9b 01       	movw	r18, r22
    238c:	ac 01       	movw	r20, r24
    238e:	c8 01       	movw	r24, r16
    2390:	b7 01       	movw	r22, r14
    2392:	0e 94 65 14 	call	0x28ca	; 0x28ca <__addsf3>
    2396:	dc 01       	movw	r26, r24
    2398:	9b 01       	movw	r18, r22
    239a:	ac 01       	movw	r20, r24
    239c:	f6 01       	movw	r30, r12
    239e:	20 83       	st	Z, r18
    23a0:	31 83       	std	Z+1, r19	; 0x01
    23a2:	42 83       	std	Z+2, r20	; 0x02
    23a4:	53 83       	std	Z+3, r21	; 0x03

    last = pidValues->pocessValue;
    23a6:	cb 01       	movw	r24, r22
    23a8:	80 93 dd 00 	sts	0x00DD, r24
    23ac:	90 93 de 00 	sts	0x00DE, r25
    23b0:	a0 93 df 00 	sts	0x00DF, r26
    23b4:	b0 93 e0 00 	sts	0x00E0, r27

}
    23b8:	1f 91       	pop	r17
    23ba:	0f 91       	pop	r16
    23bc:	ff 90       	pop	r15
    23be:	ef 90       	pop	r14
    23c0:	df 90       	pop	r13
    23c2:	cf 90       	pop	r12
    23c4:	bf 90       	pop	r11
    23c6:	af 90       	pop	r10
    23c8:	9f 90       	pop	r9
    23ca:	8f 90       	pop	r8
    23cc:	08 95       	ret

000023ce <WriteLCD>:
	writeString_P("Compass Accelerometer Y 	= ");	writeInteger(compassStruct->CompassAccY,DEC); writeString_P("\n");
	writeString_P("Compass Accelerometer Z 	= ");	writeInteger(compassStruct->CompassAccZ,DEC); writeString_P("\n");
}

void WriteLCD(_CMP_S10 *compassStruct)
{
    23ce:	0f 93       	push	r16
    23d0:	1f 93       	push	r17
    23d2:	8c 01       	movw	r16, r24
		setCursorPosLCD(0,0);
    23d4:	80 e0       	ldi	r24, 0x00	; 0
    23d6:	60 e0       	ldi	r22, 0x00	; 0
    23d8:	0e 94 64 08 	call	0x10c8	; 0x10c8 <setCursorPosLCD>
		clearLCD();
    23dc:	0e 94 1a 08 	call	0x1034	; 0x1034 <clearLCD>
		writeStringLCD_P("B=");
    23e0:	84 ef       	ldi	r24, 0xF4	; 244
    23e2:	98 e0       	ldi	r25, 0x08	; 8
    23e4:	0e 94 34 08 	call	0x1068	; 0x1068 <writeNStringLCD_P>
		setCursorPosLCD(0,2);
    23e8:	80 e0       	ldi	r24, 0x00	; 0
    23ea:	62 e0       	ldi	r22, 0x02	; 2
    23ec:	0e 94 64 08 	call	0x10c8	; 0x10c8 <setCursorPosLCD>
		writeIntegerLCD((compassStruct->CompassBearing/10),DEC);
    23f0:	f8 01       	movw	r30, r16
    23f2:	84 81       	ldd	r24, Z+4	; 0x04
    23f4:	95 81       	ldd	r25, Z+5	; 0x05
    23f6:	6a e0       	ldi	r22, 0x0A	; 10
    23f8:	70 e0       	ldi	r23, 0x00	; 0
    23fa:	0e 94 c6 15 	call	0x2b8c	; 0x2b8c <__udivmodhi4>
    23fe:	cb 01       	movw	r24, r22
    2400:	6a e0       	ldi	r22, 0x0A	; 10
    2402:	0e 94 22 0a 	call	0x1444	; 0x1444 <writeIntegerLCD>
		writeCharLCD('.');
    2406:	8e e2       	ldi	r24, 0x2E	; 46
    2408:	0e 94 27 08 	call	0x104e	; 0x104e <writeCharLCD>
		writeIntegerLCD((compassStruct->CompassBearing%10),DEC);
    240c:	f8 01       	movw	r30, r16
    240e:	84 81       	ldd	r24, Z+4	; 0x04
    2410:	95 81       	ldd	r25, Z+5	; 0x05
    2412:	6a e0       	ldi	r22, 0x0A	; 10
    2414:	70 e0       	ldi	r23, 0x00	; 0
    2416:	0e 94 c6 15 	call	0x2b8c	; 0x2b8c <__udivmodhi4>
    241a:	6a e0       	ldi	r22, 0x0A	; 10
    241c:	0e 94 22 0a 	call	0x1444	; 0x1444 <writeIntegerLCD>
		setCursorPosLCD(0,7);
    2420:	80 e0       	ldi	r24, 0x00	; 0
    2422:	67 e0       	ldi	r22, 0x07	; 7
    2424:	0e 94 64 08 	call	0x10c8	; 0x10c8 <setCursorPosLCD>
		writeStringLCD_P("P");
    2428:	82 ef       	ldi	r24, 0xF2	; 242
    242a:	98 e0       	ldi	r25, 0x08	; 8
    242c:	0e 94 34 08 	call	0x1068	; 0x1068 <writeNStringLCD_P>
		writeIntegerLCD(compassStruct->CompassPitch,DEC);
    2430:	f8 01       	movw	r30, r16
    2432:	82 81       	ldd	r24, Z+2	; 0x02
    2434:	99 27       	eor	r25, r25
    2436:	87 fd       	sbrc	r24, 7
    2438:	90 95       	com	r25
    243a:	6a e0       	ldi	r22, 0x0A	; 10
    243c:	0e 94 22 0a 	call	0x1444	; 0x1444 <writeIntegerLCD>
		setCursorPosLCD(0,12);
    2440:	80 e0       	ldi	r24, 0x00	; 0
    2442:	6c e0       	ldi	r22, 0x0C	; 12
    2444:	0e 94 64 08 	call	0x10c8	; 0x10c8 <setCursorPosLCD>
		writeStringLCD_P("R");
    2448:	80 ef       	ldi	r24, 0xF0	; 240
    244a:	98 e0       	ldi	r25, 0x08	; 8
    244c:	0e 94 34 08 	call	0x1068	; 0x1068 <writeNStringLCD_P>
		writeIntegerLCD(compassStruct->CompassRoll,DEC);
    2450:	f8 01       	movw	r30, r16
    2452:	83 81       	ldd	r24, Z+3	; 0x03
    2454:	99 27       	eor	r25, r25
    2456:	87 fd       	sbrc	r24, 7
    2458:	90 95       	com	r25
    245a:	6a e0       	ldi	r22, 0x0A	; 10
    245c:	0e 94 22 0a 	call	0x1444	; 0x1444 <writeIntegerLCD>
		setCursorPosLCD(1,0);
    2460:	81 e0       	ldi	r24, 0x01	; 1
    2462:	60 e0       	ldi	r22, 0x00	; 0
    2464:	0e 94 64 08 	call	0x10c8	; 0x10c8 <setCursorPosLCD>
}
    2468:	1f 91       	pop	r17
    246a:	0f 91       	pop	r16
    246c:	08 95       	ret

0000246e <writeSerialCompass>:
	compassStruct->CompassAccY			= (( CompassResult[18]<<8)+CompassResult[19]);
	compassStruct->CompassAccZ			= ((CompassResult[20]<<8)+CompassResult[21]);
}

void writeSerialCompass(_CMP_S10 *compassStruct)
{
    246e:	0f 93       	push	r16
    2470:	1f 93       	push	r17
    2472:	8c 01       	movw	r16, r24
    writeString_P("\f");
    2474:	8c e2       	ldi	r24, 0x2C	; 44
    2476:	9a e0       	ldi	r25, 0x0A	; 10
    2478:	0e 94 81 0a 	call	0x1502	; 0x1502 <writeNStringP>
	writeString_P("Compass Software Version = ");	writeInteger(compassStruct->CompassSoftwareVersion,DEC); writeString_P("\n");
    247c:	80 e1       	ldi	r24, 0x10	; 16
    247e:	9a e0       	ldi	r25, 0x0A	; 10
    2480:	0e 94 81 0a 	call	0x1502	; 0x1502 <writeNStringP>
    2484:	f8 01       	movw	r30, r16
    2486:	80 81       	ld	r24, Z
    2488:	99 27       	eor	r25, r25
    248a:	87 fd       	sbrc	r24, 7
    248c:	90 95       	com	r25
    248e:	6a e0       	ldi	r22, 0x0A	; 10
    2490:	0e 94 29 0b 	call	0x1652	; 0x1652 <writeInteger>
    2494:	8e e0       	ldi	r24, 0x0E	; 14
    2496:	9a e0       	ldi	r25, 0x0A	; 10
    2498:	0e 94 81 0a 	call	0x1502	; 0x1502 <writeNStringP>
	writeString_P("Compass Bearing Byte     = ");	writeInteger(compassStruct->CompassBearingByte,DEC); writeString_P("\n");
    249c:	82 ef       	ldi	r24, 0xF2	; 242
    249e:	99 e0       	ldi	r25, 0x09	; 9
    24a0:	0e 94 81 0a 	call	0x1502	; 0x1502 <writeNStringP>
    24a4:	f8 01       	movw	r30, r16
    24a6:	81 81       	ldd	r24, Z+1	; 0x01
    24a8:	99 27       	eor	r25, r25
    24aa:	87 fd       	sbrc	r24, 7
    24ac:	90 95       	com	r25
    24ae:	6a e0       	ldi	r22, 0x0A	; 10
    24b0:	0e 94 29 0b 	call	0x1652	; 0x1652 <writeInteger>
    24b4:	80 ef       	ldi	r24, 0xF0	; 240
    24b6:	99 e0       	ldi	r25, 0x09	; 9
    24b8:	0e 94 81 0a 	call	0x1502	; 0x1502 <writeNStringP>
	writeString_P("Compass Bearing          = ");	writeInteger(compassStruct->CompassBearing,DEC); writeString_P("\n");
    24bc:	84 ed       	ldi	r24, 0xD4	; 212
    24be:	99 e0       	ldi	r25, 0x09	; 9
    24c0:	0e 94 81 0a 	call	0x1502	; 0x1502 <writeNStringP>
    24c4:	f8 01       	movw	r30, r16
    24c6:	84 81       	ldd	r24, Z+4	; 0x04
    24c8:	95 81       	ldd	r25, Z+5	; 0x05
    24ca:	6a e0       	ldi	r22, 0x0A	; 10
    24cc:	0e 94 29 0b 	call	0x1652	; 0x1652 <writeInteger>
    24d0:	82 ed       	ldi	r24, 0xD2	; 210
    24d2:	99 e0       	ldi	r25, 0x09	; 9
    24d4:	0e 94 81 0a 	call	0x1502	; 0x1502 <writeNStringP>
	writeString_P("Compass Pitch			= ");	writeInteger(compassStruct->CompassPitch,DEC); writeString_P("\n");
    24d8:	8f eb       	ldi	r24, 0xBF	; 191
    24da:	99 e0       	ldi	r25, 0x09	; 9
    24dc:	0e 94 81 0a 	call	0x1502	; 0x1502 <writeNStringP>
    24e0:	f8 01       	movw	r30, r16
    24e2:	82 81       	ldd	r24, Z+2	; 0x02
    24e4:	99 27       	eor	r25, r25
    24e6:	87 fd       	sbrc	r24, 7
    24e8:	90 95       	com	r25
    24ea:	6a e0       	ldi	r22, 0x0A	; 10
    24ec:	0e 94 29 0b 	call	0x1652	; 0x1652 <writeInteger>
    24f0:	8d eb       	ldi	r24, 0xBD	; 189
    24f2:	99 e0       	ldi	r25, 0x09	; 9
    24f4:	0e 94 81 0a 	call	0x1502	; 0x1502 <writeNStringP>
	writeString_P("Compass Roll 			= ");	writeInteger(compassStruct->CompassRoll,DEC); writeString_P("\n");
    24f8:	8a ea       	ldi	r24, 0xAA	; 170
    24fa:	99 e0       	ldi	r25, 0x09	; 9
    24fc:	0e 94 81 0a 	call	0x1502	; 0x1502 <writeNStringP>
    2500:	f8 01       	movw	r30, r16
    2502:	83 81       	ldd	r24, Z+3	; 0x03
    2504:	99 27       	eor	r25, r25
    2506:	87 fd       	sbrc	r24, 7
    2508:	90 95       	com	r25
    250a:	6a e0       	ldi	r22, 0x0A	; 10
    250c:	0e 94 29 0b 	call	0x1652	; 0x1652 <writeInteger>
    2510:	88 ea       	ldi	r24, 0xA8	; 168
    2512:	99 e0       	ldi	r25, 0x09	; 9
    2514:	0e 94 81 0a 	call	0x1502	; 0x1502 <writeNStringP>
	writeString_P("Compass Magnetometer X 	= ");	writeInteger(compassStruct->CompassMagX,DEC); writeString_P("\n");
    2518:	8d e8       	ldi	r24, 0x8D	; 141
    251a:	99 e0       	ldi	r25, 0x09	; 9
    251c:	0e 94 81 0a 	call	0x1502	; 0x1502 <writeNStringP>
    2520:	f8 01       	movw	r30, r16
    2522:	86 81       	ldd	r24, Z+6	; 0x06
    2524:	97 81       	ldd	r25, Z+7	; 0x07
    2526:	6a e0       	ldi	r22, 0x0A	; 10
    2528:	0e 94 29 0b 	call	0x1652	; 0x1652 <writeInteger>
    252c:	8b e8       	ldi	r24, 0x8B	; 139
    252e:	99 e0       	ldi	r25, 0x09	; 9
    2530:	0e 94 81 0a 	call	0x1502	; 0x1502 <writeNStringP>
	writeString_P("Compass Magnetometer Y 	= ");	writeInteger(compassStruct->CompassMagY,DEC); writeString_P("\n");
    2534:	80 e7       	ldi	r24, 0x70	; 112
    2536:	99 e0       	ldi	r25, 0x09	; 9
    2538:	0e 94 81 0a 	call	0x1502	; 0x1502 <writeNStringP>
    253c:	f8 01       	movw	r30, r16
    253e:	80 85       	ldd	r24, Z+8	; 0x08
    2540:	91 85       	ldd	r25, Z+9	; 0x09
    2542:	6a e0       	ldi	r22, 0x0A	; 10
    2544:	0e 94 29 0b 	call	0x1652	; 0x1652 <writeInteger>
    2548:	8e e6       	ldi	r24, 0x6E	; 110
    254a:	99 e0       	ldi	r25, 0x09	; 9
    254c:	0e 94 81 0a 	call	0x1502	; 0x1502 <writeNStringP>
	writeString_P("Compass Magnetometer Z 	= ");	writeInteger(compassStruct->CompassMagZ,DEC); writeString_P("\n");
    2550:	83 e5       	ldi	r24, 0x53	; 83
    2552:	99 e0       	ldi	r25, 0x09	; 9
    2554:	0e 94 81 0a 	call	0x1502	; 0x1502 <writeNStringP>
    2558:	f8 01       	movw	r30, r16
    255a:	82 85       	ldd	r24, Z+10	; 0x0a
    255c:	93 85       	ldd	r25, Z+11	; 0x0b
    255e:	6a e0       	ldi	r22, 0x0A	; 10
    2560:	0e 94 29 0b 	call	0x1652	; 0x1652 <writeInteger>
    2564:	81 e5       	ldi	r24, 0x51	; 81
    2566:	99 e0       	ldi	r25, 0x09	; 9
    2568:	0e 94 81 0a 	call	0x1502	; 0x1502 <writeNStringP>
	writeString_P("Compass Accelerometer X 	= ");	writeInteger(compassStruct->CompassAccX,DEC); writeString_P("\n");
    256c:	85 e3       	ldi	r24, 0x35	; 53
    256e:	99 e0       	ldi	r25, 0x09	; 9
    2570:	0e 94 81 0a 	call	0x1502	; 0x1502 <writeNStringP>
    2574:	f8 01       	movw	r30, r16
    2576:	84 85       	ldd	r24, Z+12	; 0x0c
    2578:	95 85       	ldd	r25, Z+13	; 0x0d
    257a:	6a e0       	ldi	r22, 0x0A	; 10
    257c:	0e 94 29 0b 	call	0x1652	; 0x1652 <writeInteger>
    2580:	83 e3       	ldi	r24, 0x33	; 51
    2582:	99 e0       	ldi	r25, 0x09	; 9
    2584:	0e 94 81 0a 	call	0x1502	; 0x1502 <writeNStringP>
	writeString_P("Compass Accelerometer Y 	= ");	writeInteger(compassStruct->CompassAccY,DEC); writeString_P("\n");
    2588:	87 e1       	ldi	r24, 0x17	; 23
    258a:	99 e0       	ldi	r25, 0x09	; 9
    258c:	0e 94 81 0a 	call	0x1502	; 0x1502 <writeNStringP>
    2590:	f8 01       	movw	r30, r16
    2592:	86 85       	ldd	r24, Z+14	; 0x0e
    2594:	97 85       	ldd	r25, Z+15	; 0x0f
    2596:	6a e0       	ldi	r22, 0x0A	; 10
    2598:	0e 94 29 0b 	call	0x1652	; 0x1652 <writeInteger>
    259c:	85 e1       	ldi	r24, 0x15	; 21
    259e:	99 e0       	ldi	r25, 0x09	; 9
    25a0:	0e 94 81 0a 	call	0x1502	; 0x1502 <writeNStringP>
	writeString_P("Compass Accelerometer Z 	= ");	writeInteger(compassStruct->CompassAccZ,DEC); writeString_P("\n");
    25a4:	89 ef       	ldi	r24, 0xF9	; 249
    25a6:	98 e0       	ldi	r25, 0x08	; 8
    25a8:	0e 94 81 0a 	call	0x1502	; 0x1502 <writeNStringP>
    25ac:	f8 01       	movw	r30, r16
    25ae:	80 89       	ldd	r24, Z+16	; 0x10
    25b0:	91 89       	ldd	r25, Z+17	; 0x11
    25b2:	6a e0       	ldi	r22, 0x0A	; 10
    25b4:	0e 94 29 0b 	call	0x1652	; 0x1652 <writeInteger>
    25b8:	87 ef       	ldi	r24, 0xF7	; 247
    25ba:	98 e0       	ldi	r25, 0x08	; 8
    25bc:	0e 94 81 0a 	call	0x1502	; 0x1502 <writeNStringP>
}
    25c0:	1f 91       	pop	r17
    25c2:	0f 91       	pop	r16
    25c4:	08 95       	ret

000025c6 <ReadCompass>:
#include "RP6ControlLib.h"
#include "RP6I2CmasterTWI.h"
#include "CMP_S10_compass.h"

void ReadCompass(_CMP_S10 *compassStruct)
{
    25c6:	0f 93       	push	r16
    25c8:	1f 93       	push	r17
    25ca:	cf 93       	push	r28
    25cc:	df 93       	push	r29
    25ce:	8c 01       	movw	r16, r24
	static signed char teller;
	static signed char CompassResult[22];

	if(TWI_operation == I2CTWI_NO_OPERATION)
    25d0:	80 91 99 00 	lds	r24, 0x0099
    25d4:	88 23       	and	r24, r24
    25d6:	31 f5       	brne	.+76     	; 0x2624 <ReadCompass+0x5e>
	{
		if(getStopwatch4() > 100) // 100ms
    25d8:	80 91 5d 01 	lds	r24, 0x015D
    25dc:	90 91 5e 01 	lds	r25, 0x015E
    25e0:	85 36       	cpi	r24, 0x65	; 101
    25e2:	91 05       	cpc	r25, r1
    25e4:	f8 f0       	brcs	.+62     	; 0x2624 <ReadCompass+0x5e>
		{
			for (teller=0; teller <=21; ++teller)
    25e6:	10 92 f7 00 	sts	0x00F7, r1
    25ea:	14 c0       	rjmp	.+40     	; 0x2614 <ReadCompass+0x4e>
			{
				I2CTWI_transmitByte(CMPS10,teller);
    25ec:	80 ec       	ldi	r24, 0xC0	; 192
    25ee:	0e 94 46 0d 	call	0x1a8c	; 0x1a8c <I2CTWI_transmitByte>
				CompassResult[teller]= I2CTWI_readByte(CMPS10);
    25f2:	80 91 f7 00 	lds	r24, 0x00F7
    25f6:	c8 2f       	mov	r28, r24
    25f8:	dd 27       	eor	r29, r29
    25fa:	c7 fd       	sbrc	r28, 7
    25fc:	d0 95       	com	r29
    25fe:	80 ec       	ldi	r24, 0xC0	; 192
    2600:	0e 94 0c 0d 	call	0x1a18	; 0x1a18 <I2CTWI_readByte>
    2604:	cf 51       	subi	r28, 0x1F	; 31
    2606:	df 4f       	sbci	r29, 0xFF	; 255
    2608:	88 83       	st	Y, r24

	if(TWI_operation == I2CTWI_NO_OPERATION)
	{
		if(getStopwatch4() > 100) // 100ms
		{
			for (teller=0; teller <=21; ++teller)
    260a:	80 91 f7 00 	lds	r24, 0x00F7
    260e:	8f 5f       	subi	r24, 0xFF	; 255
    2610:	80 93 f7 00 	sts	0x00F7, r24
    2614:	60 91 f7 00 	lds	r22, 0x00F7
    2618:	66 31       	cpi	r22, 0x16	; 22
    261a:	44 f3       	brlt	.-48     	; 0x25ec <ReadCompass+0x26>
			{
				I2CTWI_transmitByte(CMPS10,teller);
				CompassResult[teller]= I2CTWI_readByte(CMPS10);
			}
		setStopwatch4(0);
    261c:	10 92 5e 01 	sts	0x015E, r1
    2620:	10 92 5d 01 	sts	0x015D, r1
		}
	}

	compassStruct->CompassSoftwareVersion= CompassResult[0];
    2624:	80 91 e1 00 	lds	r24, 0x00E1
    2628:	f8 01       	movw	r30, r16
    262a:	80 83       	st	Z, r24
	compassStruct->CompassBearingByte 	= CompassResult[1];
    262c:	80 91 e2 00 	lds	r24, 0x00E2
    2630:	81 83       	std	Z+1, r24	; 0x01
	compassStruct->CompassPitch			= CompassResult[4];
    2632:	80 91 e5 00 	lds	r24, 0x00E5
    2636:	82 83       	std	Z+2, r24	; 0x02
	compassStruct->CompassRoll			= CompassResult[5];
    2638:	80 91 e6 00 	lds	r24, 0x00E6
    263c:	83 83       	std	Z+3, r24	; 0x03
	compassStruct->CompassBearing		= ((CompassResult[2]<<8)+ CompassResult[3]); // schuif de highbyte op en zet de low byte er bij
    263e:	80 91 e3 00 	lds	r24, 0x00E3
    2642:	99 27       	eor	r25, r25
    2644:	87 fd       	sbrc	r24, 7
    2646:	90 95       	com	r25
    2648:	98 2f       	mov	r25, r24
    264a:	88 27       	eor	r24, r24
    264c:	20 91 e4 00 	lds	r18, 0x00E4
    2650:	33 27       	eor	r19, r19
    2652:	27 fd       	sbrc	r18, 7
    2654:	30 95       	com	r19
    2656:	82 0f       	add	r24, r18
    2658:	93 1f       	adc	r25, r19
    265a:	95 83       	std	Z+5, r25	; 0x05
    265c:	84 83       	std	Z+4, r24	; 0x04
	compassStruct->CompassMagX			= ((CompassResult[10]<<8)+CompassResult[11]);
    265e:	80 91 eb 00 	lds	r24, 0x00EB
    2662:	99 27       	eor	r25, r25
    2664:	87 fd       	sbrc	r24, 7
    2666:	90 95       	com	r25
    2668:	98 2f       	mov	r25, r24
    266a:	88 27       	eor	r24, r24
    266c:	20 91 ec 00 	lds	r18, 0x00EC
    2670:	33 27       	eor	r19, r19
    2672:	27 fd       	sbrc	r18, 7
    2674:	30 95       	com	r19
    2676:	82 0f       	add	r24, r18
    2678:	93 1f       	adc	r25, r19
    267a:	97 83       	std	Z+7, r25	; 0x07
    267c:	86 83       	std	Z+6, r24	; 0x06
	compassStruct->CompassMagY			= ((CompassResult[12]<<8)+CompassResult[13]);
    267e:	80 91 ed 00 	lds	r24, 0x00ED
    2682:	99 27       	eor	r25, r25
    2684:	87 fd       	sbrc	r24, 7
    2686:	90 95       	com	r25
    2688:	98 2f       	mov	r25, r24
    268a:	88 27       	eor	r24, r24
    268c:	20 91 ee 00 	lds	r18, 0x00EE
    2690:	33 27       	eor	r19, r19
    2692:	27 fd       	sbrc	r18, 7
    2694:	30 95       	com	r19
    2696:	82 0f       	add	r24, r18
    2698:	93 1f       	adc	r25, r19
    269a:	91 87       	std	Z+9, r25	; 0x09
    269c:	80 87       	std	Z+8, r24	; 0x08
	compassStruct->CompassMagZ			= ((CompassResult[14]<<8)+CompassResult[15]);
    269e:	80 91 ef 00 	lds	r24, 0x00EF
    26a2:	99 27       	eor	r25, r25
    26a4:	87 fd       	sbrc	r24, 7
    26a6:	90 95       	com	r25
    26a8:	98 2f       	mov	r25, r24
    26aa:	88 27       	eor	r24, r24
    26ac:	20 91 f0 00 	lds	r18, 0x00F0
    26b0:	33 27       	eor	r19, r19
    26b2:	27 fd       	sbrc	r18, 7
    26b4:	30 95       	com	r19
    26b6:	82 0f       	add	r24, r18
    26b8:	93 1f       	adc	r25, r19
    26ba:	93 87       	std	Z+11, r25	; 0x0b
    26bc:	82 87       	std	Z+10, r24	; 0x0a
	compassStruct->CompassAccX			= ((CompassResult[16]<<8)+CompassResult[17]);
    26be:	80 91 f1 00 	lds	r24, 0x00F1
    26c2:	99 27       	eor	r25, r25
    26c4:	87 fd       	sbrc	r24, 7
    26c6:	90 95       	com	r25
    26c8:	98 2f       	mov	r25, r24
    26ca:	88 27       	eor	r24, r24
    26cc:	20 91 f2 00 	lds	r18, 0x00F2
    26d0:	33 27       	eor	r19, r19
    26d2:	27 fd       	sbrc	r18, 7
    26d4:	30 95       	com	r19
    26d6:	82 0f       	add	r24, r18
    26d8:	93 1f       	adc	r25, r19
    26da:	95 87       	std	Z+13, r25	; 0x0d
    26dc:	84 87       	std	Z+12, r24	; 0x0c
	compassStruct->CompassAccY			= (( CompassResult[18]<<8)+CompassResult[19]);
    26de:	80 91 f3 00 	lds	r24, 0x00F3
    26e2:	99 27       	eor	r25, r25
    26e4:	87 fd       	sbrc	r24, 7
    26e6:	90 95       	com	r25
    26e8:	98 2f       	mov	r25, r24
    26ea:	88 27       	eor	r24, r24
    26ec:	20 91 f4 00 	lds	r18, 0x00F4
    26f0:	33 27       	eor	r19, r19
    26f2:	27 fd       	sbrc	r18, 7
    26f4:	30 95       	com	r19
    26f6:	82 0f       	add	r24, r18
    26f8:	93 1f       	adc	r25, r19
    26fa:	97 87       	std	Z+15, r25	; 0x0f
    26fc:	86 87       	std	Z+14, r24	; 0x0e
	compassStruct->CompassAccZ			= ((CompassResult[20]<<8)+CompassResult[21]);
    26fe:	80 91 f5 00 	lds	r24, 0x00F5
    2702:	99 27       	eor	r25, r25
    2704:	87 fd       	sbrc	r24, 7
    2706:	90 95       	com	r25
    2708:	98 2f       	mov	r25, r24
    270a:	88 27       	eor	r24, r24
    270c:	20 91 f6 00 	lds	r18, 0x00F6
    2710:	33 27       	eor	r19, r19
    2712:	27 fd       	sbrc	r18, 7
    2714:	30 95       	com	r19
    2716:	82 0f       	add	r24, r18
    2718:	93 1f       	adc	r25, r19
    271a:	91 8b       	std	Z+17, r25	; 0x11
    271c:	80 8b       	std	Z+16, r24	; 0x10
}
    271e:	df 91       	pop	r29
    2720:	cf 91       	pop	r28
    2722:	1f 91       	pop	r17
    2724:	0f 91       	pop	r16
    2726:	08 95       	ret

00002728 <decToBcd>:
#include "Ds1307.h"


// Convert normal decimal numbers to binary coded decimal
uint8_t decToBcd(uint8_t val)
{
    2728:	48 2f       	mov	r20, r24
    272a:	6a e0       	ldi	r22, 0x0A	; 10
    272c:	0e 94 ba 15 	call	0x2b74	; 0x2b74 <__udivmodqi4>
    2730:	28 2f       	mov	r18, r24
    2732:	30 e0       	ldi	r19, 0x00	; 0
    2734:	84 e0       	ldi	r24, 0x04	; 4
    2736:	22 0f       	add	r18, r18
    2738:	33 1f       	adc	r19, r19
    273a:	8a 95       	dec	r24
    273c:	e1 f7       	brne	.-8      	; 0x2736 <decToBcd+0xe>
    273e:	84 2f       	mov	r24, r20
    2740:	0e 94 ba 15 	call	0x2b74	; 0x2b74 <__udivmodqi4>
  return ( (val/10*16) + (val%10) );
}
    2744:	89 2f       	mov	r24, r25
    2746:	82 0f       	add	r24, r18
    2748:	08 95       	ret

0000274a <bcdToDec>:

// Convert binary coded decimal to normal decimal numbers
uint8_t bcdToDec(uint8_t val)
{
    274a:	28 2f       	mov	r18, r24
    274c:	22 95       	swap	r18
    274e:	2f 70       	andi	r18, 0x0F	; 15
    2750:	9a e0       	ldi	r25, 0x0A	; 10
    2752:	29 9f       	mul	r18, r25
    2754:	90 01       	movw	r18, r0
    2756:	11 24       	eor	r1, r1
    2758:	8f 70       	andi	r24, 0x0F	; 15
  return ( (val/16*10) + (val%16) );
}
    275a:	82 0f       	add	r24, r18
    275c:	08 95       	ret

0000275e <I2C_requestedDataReadyRtc>:

}

void I2C_requestedDataReadyRtc(uint8_t dataRequestID)
{
    writeInteger(dataRequestID,DEC);
    275e:	90 e0       	ldi	r25, 0x00	; 0
    2760:	6a e0       	ldi	r22, 0x0A	; 10
    2762:	0e 94 29 0b 	call	0x1652	; 0x1652 <writeInteger>
}
    2766:	08 95       	ret

00002768 <setRtc>:
  uint8_t weekDay   =   2;  //1-7
  uint8_t monthDay  =   1;  //1-31
  uint8_t month     =   3;  //1-12
  uint8_t year      =   11; //0-99

  if(TWI_operation == I2CTWI_NO_OPERATION)
    2768:	80 91 99 00 	lds	r24, 0x0099
    276c:	88 23       	and	r24, r24
    276e:	a9 f5       	brne	.+106    	; 0x27da <setRtc+0x72>
  {
      I2CTWI_transmitByte(DS1307_I2C_ADDRESS,0);			//begin transmission
    2770:	80 ed       	ldi	r24, 0xD0	; 208
    2772:	60 e0       	ldi	r22, 0x00	; 0
    2774:	0e 94 46 0d 	call	0x1a8c	; 0x1a8c <I2CTWI_transmitByte>
      I2CTWI_transmitByte(DS1307_I2C_ADDRESS,decToBcd(second));
    2778:	8d e2       	ldi	r24, 0x2D	; 45
    277a:	0e 94 94 13 	call	0x2728	; 0x2728 <decToBcd>
    277e:	68 2f       	mov	r22, r24
    2780:	80 ed       	ldi	r24, 0xD0	; 208
    2782:	0e 94 46 0d 	call	0x1a8c	; 0x1a8c <I2CTWI_transmitByte>
      I2CTWI_transmitByte(DS1307_I2C_ADDRESS,decToBcd(minute));
    2786:	88 e2       	ldi	r24, 0x28	; 40
    2788:	0e 94 94 13 	call	0x2728	; 0x2728 <decToBcd>
    278c:	68 2f       	mov	r22, r24
    278e:	80 ed       	ldi	r24, 0xD0	; 208
    2790:	0e 94 46 0d 	call	0x1a8c	; 0x1a8c <I2CTWI_transmitByte>
      I2CTWI_transmitByte(DS1307_I2C_ADDRESS,decToBcd(hour));
    2794:	80 e0       	ldi	r24, 0x00	; 0
    2796:	0e 94 94 13 	call	0x2728	; 0x2728 <decToBcd>
    279a:	68 2f       	mov	r22, r24
    279c:	80 ed       	ldi	r24, 0xD0	; 208
    279e:	0e 94 46 0d 	call	0x1a8c	; 0x1a8c <I2CTWI_transmitByte>
      I2CTWI_transmitByte(DS1307_I2C_ADDRESS,decToBcd(weekDay));
    27a2:	82 e0       	ldi	r24, 0x02	; 2
    27a4:	0e 94 94 13 	call	0x2728	; 0x2728 <decToBcd>
    27a8:	68 2f       	mov	r22, r24
    27aa:	80 ed       	ldi	r24, 0xD0	; 208
    27ac:	0e 94 46 0d 	call	0x1a8c	; 0x1a8c <I2CTWI_transmitByte>
      I2CTWI_transmitByte(DS1307_I2C_ADDRESS,decToBcd(monthDay));
    27b0:	81 e0       	ldi	r24, 0x01	; 1
    27b2:	0e 94 94 13 	call	0x2728	; 0x2728 <decToBcd>
    27b6:	68 2f       	mov	r22, r24
    27b8:	80 ed       	ldi	r24, 0xD0	; 208
    27ba:	0e 94 46 0d 	call	0x1a8c	; 0x1a8c <I2CTWI_transmitByte>
      I2CTWI_transmitByte(DS1307_I2C_ADDRESS,decToBcd(month));
    27be:	83 e0       	ldi	r24, 0x03	; 3
    27c0:	0e 94 94 13 	call	0x2728	; 0x2728 <decToBcd>
    27c4:	68 2f       	mov	r22, r24
    27c6:	80 ed       	ldi	r24, 0xD0	; 208
    27c8:	0e 94 46 0d 	call	0x1a8c	; 0x1a8c <I2CTWI_transmitByte>
      I2CTWI_transmitByte(DS1307_I2C_ADDRESS,decToBcd(year));
    27cc:	8b e0       	ldi	r24, 0x0B	; 11
    27ce:	0e 94 94 13 	call	0x2728	; 0x2728 <decToBcd>
    27d2:	68 2f       	mov	r22, r24
    27d4:	80 ed       	ldi	r24, 0xD0	; 208
    27d6:	0e 94 46 0d 	call	0x1a8c	; 0x1a8c <I2CTWI_transmitByte>
    27da:	08 95       	ret

000027dc <readRtc>:
{
  return ( (val/16*10) + (val%16) );
}

void readRtc(RtcInfo *rtcStruct)
{
    27dc:	0f 93       	push	r16
    27de:	1f 93       	push	r17
    27e0:	cf 93       	push	r28
    27e2:	df 93       	push	r29
    27e4:	8c 01       	movw	r16, r24
    static uint8_t counter;
	static uint8_t RTCResult[7];


	if(TWI_operation == I2CTWI_NO_OPERATION)				//if not busy
    27e6:	80 91 99 00 	lds	r24, 0x0099
    27ea:	88 23       	and	r24, r24
    27ec:	e1 f5       	brne	.+120    	; 0x2866 <readRtc+0x8a>
	{
		if(getStopwatch1() > 100) 							// wait 100ms
    27ee:	80 91 57 01 	lds	r24, 0x0157
    27f2:	90 91 58 01 	lds	r25, 0x0158
    27f6:	85 36       	cpi	r24, 0x65	; 101
    27f8:	91 05       	cpc	r25, r1
    27fa:	a8 f1       	brcs	.+106    	; 0x2866 <readRtc+0x8a>
		{
		    for ( counter = 0; counter <=7; counter++)
    27fc:	10 92 ff 00 	sts	0x00FF, r1
    2800:	2a c0       	rjmp	.+84     	; 0x2856 <readRtc+0x7a>
            {
                I2CTWI_transmitByte(DS1307_I2C_ADDRESS,counter);			// what register to read
    2802:	80 ed       	ldi	r24, 0xD0	; 208
    2804:	0e 94 46 0d 	call	0x1a8c	; 0x1a8c <I2CTWI_transmitByte>
                RTCResult[counter] = I2CTWI_readByte(DS1307_I2C_ADDRESS);
    2808:	80 91 ff 00 	lds	r24, 0x00FF
    280c:	c8 2f       	mov	r28, r24
    280e:	d0 e0       	ldi	r29, 0x00	; 0
    2810:	80 ed       	ldi	r24, 0xD0	; 208
    2812:	0e 94 0c 0d 	call	0x1a18	; 0x1a18 <I2CTWI_readByte>
    2816:	c8 50       	subi	r28, 0x08	; 8
    2818:	df 4f       	sbci	r29, 0xFF	; 255
    281a:	88 83       	st	Y, r24
                writeString_P("De data van de klok\n");
    281c:	82 e3       	ldi	r24, 0x32	; 50
    281e:	9a e0       	ldi	r25, 0x0A	; 10
    2820:	0e 94 81 0a 	call	0x1502	; 0x1502 <writeNStringP>
                writeInteger(RTCResult[0],DEC);writeString_P("\n");
    2824:	80 91 f8 00 	lds	r24, 0x00F8
    2828:	90 e0       	ldi	r25, 0x00	; 0
    282a:	6a e0       	ldi	r22, 0x0A	; 10
    282c:	0e 94 29 0b 	call	0x1652	; 0x1652 <writeInteger>
    2830:	80 e3       	ldi	r24, 0x30	; 48
    2832:	9a e0       	ldi	r25, 0x0A	; 10
    2834:	0e 94 81 0a 	call	0x1502	; 0x1502 <writeNStringP>
                writeInteger(RTCResult[1],DEC);writeString_P("\n");
    2838:	80 91 f9 00 	lds	r24, 0x00F9
    283c:	90 e0       	ldi	r25, 0x00	; 0
    283e:	6a e0       	ldi	r22, 0x0A	; 10
    2840:	0e 94 29 0b 	call	0x1652	; 0x1652 <writeInteger>
    2844:	8e e2       	ldi	r24, 0x2E	; 46
    2846:	9a e0       	ldi	r25, 0x0A	; 10
    2848:	0e 94 81 0a 	call	0x1502	; 0x1502 <writeNStringP>

	if(TWI_operation == I2CTWI_NO_OPERATION)				//if not busy
	{
		if(getStopwatch1() > 100) 							// wait 100ms
		{
		    for ( counter = 0; counter <=7; counter++)
    284c:	80 91 ff 00 	lds	r24, 0x00FF
    2850:	8f 5f       	subi	r24, 0xFF	; 255
    2852:	80 93 ff 00 	sts	0x00FF, r24
    2856:	60 91 ff 00 	lds	r22, 0x00FF
    285a:	68 30       	cpi	r22, 0x08	; 8
    285c:	90 f2       	brcs	.-92     	; 0x2802 <readRtc+0x26>
                writeString_P("De data van de klok\n");
                writeInteger(RTCResult[0],DEC);writeString_P("\n");
                writeInteger(RTCResult[1],DEC);writeString_P("\n");
            }

		setStopwatch1(0);
    285e:	10 92 58 01 	sts	0x0158, r1
    2862:	10 92 57 01 	sts	0x0157, r1
		}
	}
	rtcStruct->second					=	bcdToDec(RTCResult[0] & 0x7f);
    2866:	80 91 f8 00 	lds	r24, 0x00F8
    286a:	8f 77       	andi	r24, 0x7F	; 127
    286c:	0e 94 a5 13 	call	0x274a	; 0x274a <bcdToDec>
    2870:	f8 01       	movw	r30, r16
    2872:	80 83       	st	Z, r24
	rtcStruct->minute					=	bcdToDec(RTCResult[1]);
    2874:	80 91 f9 00 	lds	r24, 0x00F9
    2878:	0e 94 a5 13 	call	0x274a	; 0x274a <bcdToDec>
    287c:	f8 01       	movw	r30, r16
    287e:	81 83       	std	Z+1, r24	; 0x01
	rtcStruct->hour						=	bcdToDec(RTCResult[2] & 0x3f);
    2880:	80 91 fa 00 	lds	r24, 0x00FA
    2884:	8f 73       	andi	r24, 0x3F	; 63
    2886:	0e 94 a5 13 	call	0x274a	; 0x274a <bcdToDec>
    288a:	f8 01       	movw	r30, r16
    288c:	82 83       	std	Z+2, r24	; 0x02
	rtcStruct->dayOfTheWeek	            =	bcdToDec(RTCResult[3]);
    288e:	80 91 fb 00 	lds	r24, 0x00FB
    2892:	0e 94 a5 13 	call	0x274a	; 0x274a <bcdToDec>
    2896:	f8 01       	movw	r30, r16
    2898:	83 83       	std	Z+3, r24	; 0x03
	rtcStruct->dayOfTheMonth	        =	bcdToDec(RTCResult[4]);
    289a:	80 91 fc 00 	lds	r24, 0x00FC
    289e:	0e 94 a5 13 	call	0x274a	; 0x274a <bcdToDec>
    28a2:	f8 01       	movw	r30, r16
    28a4:	84 83       	std	Z+4, r24	; 0x04
	rtcStruct->month					=	bcdToDec(RTCResult[5]);
    28a6:	80 91 fd 00 	lds	r24, 0x00FD
    28aa:	0e 94 a5 13 	call	0x274a	; 0x274a <bcdToDec>
    28ae:	f8 01       	movw	r30, r16
    28b0:	85 83       	std	Z+5, r24	; 0x05
	rtcStruct->year						=	bcdToDec(RTCResult[6]);
    28b2:	80 91 fe 00 	lds	r24, 0x00FE
    28b6:	0e 94 a5 13 	call	0x274a	; 0x274a <bcdToDec>
    28ba:	f8 01       	movw	r30, r16
    28bc:	86 83       	std	Z+6, r24	; 0x06

}
    28be:	df 91       	pop	r29
    28c0:	cf 91       	pop	r28
    28c2:	1f 91       	pop	r17
    28c4:	0f 91       	pop	r16
    28c6:	08 95       	ret

000028c8 <__subsf3>:
    28c8:	50 58       	subi	r21, 0x80	; 128

000028ca <__addsf3>:
    28ca:	bb 27       	eor	r27, r27
    28cc:	aa 27       	eor	r26, r26
    28ce:	0e d0       	rcall	.+28     	; 0x28ec <__addsf3x>
    28d0:	b4 c0       	rjmp	.+360    	; 0x2a3a <__fp_round>
    28d2:	a5 d0       	rcall	.+330    	; 0x2a1e <__fp_pscA>
    28d4:	30 f0       	brcs	.+12     	; 0x28e2 <__addsf3+0x18>
    28d6:	aa d0       	rcall	.+340    	; 0x2a2c <__fp_pscB>
    28d8:	20 f0       	brcs	.+8      	; 0x28e2 <__addsf3+0x18>
    28da:	31 f4       	brne	.+12     	; 0x28e8 <__addsf3+0x1e>
    28dc:	9f 3f       	cpi	r25, 0xFF	; 255
    28de:	11 f4       	brne	.+4      	; 0x28e4 <__addsf3+0x1a>
    28e0:	1e f4       	brtc	.+6      	; 0x28e8 <__addsf3+0x1e>
    28e2:	9a c0       	rjmp	.+308    	; 0x2a18 <__fp_nan>
    28e4:	0e f4       	brtc	.+2      	; 0x28e8 <__addsf3+0x1e>
    28e6:	e0 95       	com	r30
    28e8:	e7 fb       	bst	r30, 7
    28ea:	90 c0       	rjmp	.+288    	; 0x2a0c <__fp_inf>

000028ec <__addsf3x>:
    28ec:	e9 2f       	mov	r30, r25
    28ee:	b6 d0       	rcall	.+364    	; 0x2a5c <__fp_split3>
    28f0:	80 f3       	brcs	.-32     	; 0x28d2 <__addsf3+0x8>
    28f2:	ba 17       	cp	r27, r26
    28f4:	62 07       	cpc	r22, r18
    28f6:	73 07       	cpc	r23, r19
    28f8:	84 07       	cpc	r24, r20
    28fa:	95 07       	cpc	r25, r21
    28fc:	18 f0       	brcs	.+6      	; 0x2904 <__addsf3x+0x18>
    28fe:	71 f4       	brne	.+28     	; 0x291c <__addsf3x+0x30>
    2900:	9e f5       	brtc	.+102    	; 0x2968 <__addsf3x+0x7c>
    2902:	ce c0       	rjmp	.+412    	; 0x2aa0 <__fp_zero>
    2904:	0e f4       	brtc	.+2      	; 0x2908 <__addsf3x+0x1c>
    2906:	e0 95       	com	r30
    2908:	0b 2e       	mov	r0, r27
    290a:	ba 2f       	mov	r27, r26
    290c:	a0 2d       	mov	r26, r0
    290e:	0b 01       	movw	r0, r22
    2910:	b9 01       	movw	r22, r18
    2912:	90 01       	movw	r18, r0
    2914:	0c 01       	movw	r0, r24
    2916:	ca 01       	movw	r24, r20
    2918:	a0 01       	movw	r20, r0
    291a:	11 24       	eor	r1, r1
    291c:	ff 27       	eor	r31, r31
    291e:	59 1b       	sub	r21, r25
    2920:	99 f0       	breq	.+38     	; 0x2948 <__addsf3x+0x5c>
    2922:	59 3f       	cpi	r21, 0xF9	; 249
    2924:	50 f4       	brcc	.+20     	; 0x293a <__addsf3x+0x4e>
    2926:	50 3e       	cpi	r21, 0xE0	; 224
    2928:	68 f1       	brcs	.+90     	; 0x2984 <__addsf3x+0x98>
    292a:	1a 16       	cp	r1, r26
    292c:	f0 40       	sbci	r31, 0x00	; 0
    292e:	a2 2f       	mov	r26, r18
    2930:	23 2f       	mov	r18, r19
    2932:	34 2f       	mov	r19, r20
    2934:	44 27       	eor	r20, r20
    2936:	58 5f       	subi	r21, 0xF8	; 248
    2938:	f3 cf       	rjmp	.-26     	; 0x2920 <__addsf3x+0x34>
    293a:	46 95       	lsr	r20
    293c:	37 95       	ror	r19
    293e:	27 95       	ror	r18
    2940:	a7 95       	ror	r26
    2942:	f0 40       	sbci	r31, 0x00	; 0
    2944:	53 95       	inc	r21
    2946:	c9 f7       	brne	.-14     	; 0x293a <__addsf3x+0x4e>
    2948:	7e f4       	brtc	.+30     	; 0x2968 <__addsf3x+0x7c>
    294a:	1f 16       	cp	r1, r31
    294c:	ba 0b       	sbc	r27, r26
    294e:	62 0b       	sbc	r22, r18
    2950:	73 0b       	sbc	r23, r19
    2952:	84 0b       	sbc	r24, r20
    2954:	ba f0       	brmi	.+46     	; 0x2984 <__addsf3x+0x98>
    2956:	91 50       	subi	r25, 0x01	; 1
    2958:	a1 f0       	breq	.+40     	; 0x2982 <__addsf3x+0x96>
    295a:	ff 0f       	add	r31, r31
    295c:	bb 1f       	adc	r27, r27
    295e:	66 1f       	adc	r22, r22
    2960:	77 1f       	adc	r23, r23
    2962:	88 1f       	adc	r24, r24
    2964:	c2 f7       	brpl	.-16     	; 0x2956 <__addsf3x+0x6a>
    2966:	0e c0       	rjmp	.+28     	; 0x2984 <__addsf3x+0x98>
    2968:	ba 0f       	add	r27, r26
    296a:	62 1f       	adc	r22, r18
    296c:	73 1f       	adc	r23, r19
    296e:	84 1f       	adc	r24, r20
    2970:	48 f4       	brcc	.+18     	; 0x2984 <__addsf3x+0x98>
    2972:	87 95       	ror	r24
    2974:	77 95       	ror	r23
    2976:	67 95       	ror	r22
    2978:	b7 95       	ror	r27
    297a:	f7 95       	ror	r31
    297c:	9e 3f       	cpi	r25, 0xFE	; 254
    297e:	08 f0       	brcs	.+2      	; 0x2982 <__addsf3x+0x96>
    2980:	b3 cf       	rjmp	.-154    	; 0x28e8 <__addsf3+0x1e>
    2982:	93 95       	inc	r25
    2984:	88 0f       	add	r24, r24
    2986:	08 f0       	brcs	.+2      	; 0x298a <__addsf3x+0x9e>
    2988:	99 27       	eor	r25, r25
    298a:	ee 0f       	add	r30, r30
    298c:	97 95       	ror	r25
    298e:	87 95       	ror	r24
    2990:	08 95       	ret

00002992 <__floatunsisf>:
    2992:	e8 94       	clt
    2994:	09 c0       	rjmp	.+18     	; 0x29a8 <__floatsisf+0x12>

00002996 <__floatsisf>:
    2996:	97 fb       	bst	r25, 7
    2998:	3e f4       	brtc	.+14     	; 0x29a8 <__floatsisf+0x12>
    299a:	90 95       	com	r25
    299c:	80 95       	com	r24
    299e:	70 95       	com	r23
    29a0:	61 95       	neg	r22
    29a2:	7f 4f       	sbci	r23, 0xFF	; 255
    29a4:	8f 4f       	sbci	r24, 0xFF	; 255
    29a6:	9f 4f       	sbci	r25, 0xFF	; 255
    29a8:	99 23       	and	r25, r25
    29aa:	a9 f0       	breq	.+42     	; 0x29d6 <__floatsisf+0x40>
    29ac:	f9 2f       	mov	r31, r25
    29ae:	96 e9       	ldi	r25, 0x96	; 150
    29b0:	bb 27       	eor	r27, r27
    29b2:	93 95       	inc	r25
    29b4:	f6 95       	lsr	r31
    29b6:	87 95       	ror	r24
    29b8:	77 95       	ror	r23
    29ba:	67 95       	ror	r22
    29bc:	b7 95       	ror	r27
    29be:	f1 11       	cpse	r31, r1
    29c0:	f8 cf       	rjmp	.-16     	; 0x29b2 <__floatsisf+0x1c>
    29c2:	fa f4       	brpl	.+62     	; 0x2a02 <__floatsisf+0x6c>
    29c4:	bb 0f       	add	r27, r27
    29c6:	11 f4       	brne	.+4      	; 0x29cc <__floatsisf+0x36>
    29c8:	60 ff       	sbrs	r22, 0
    29ca:	1b c0       	rjmp	.+54     	; 0x2a02 <__floatsisf+0x6c>
    29cc:	6f 5f       	subi	r22, 0xFF	; 255
    29ce:	7f 4f       	sbci	r23, 0xFF	; 255
    29d0:	8f 4f       	sbci	r24, 0xFF	; 255
    29d2:	9f 4f       	sbci	r25, 0xFF	; 255
    29d4:	16 c0       	rjmp	.+44     	; 0x2a02 <__floatsisf+0x6c>
    29d6:	88 23       	and	r24, r24
    29d8:	11 f0       	breq	.+4      	; 0x29de <__floatsisf+0x48>
    29da:	96 e9       	ldi	r25, 0x96	; 150
    29dc:	11 c0       	rjmp	.+34     	; 0x2a00 <__floatsisf+0x6a>
    29de:	77 23       	and	r23, r23
    29e0:	21 f0       	breq	.+8      	; 0x29ea <__floatsisf+0x54>
    29e2:	9e e8       	ldi	r25, 0x8E	; 142
    29e4:	87 2f       	mov	r24, r23
    29e6:	76 2f       	mov	r23, r22
    29e8:	05 c0       	rjmp	.+10     	; 0x29f4 <__floatsisf+0x5e>
    29ea:	66 23       	and	r22, r22
    29ec:	71 f0       	breq	.+28     	; 0x2a0a <__floatsisf+0x74>
    29ee:	96 e8       	ldi	r25, 0x86	; 134
    29f0:	86 2f       	mov	r24, r22
    29f2:	70 e0       	ldi	r23, 0x00	; 0
    29f4:	60 e0       	ldi	r22, 0x00	; 0
    29f6:	2a f0       	brmi	.+10     	; 0x2a02 <__floatsisf+0x6c>
    29f8:	9a 95       	dec	r25
    29fa:	66 0f       	add	r22, r22
    29fc:	77 1f       	adc	r23, r23
    29fe:	88 1f       	adc	r24, r24
    2a00:	da f7       	brpl	.-10     	; 0x29f8 <__floatsisf+0x62>
    2a02:	88 0f       	add	r24, r24
    2a04:	96 95       	lsr	r25
    2a06:	87 95       	ror	r24
    2a08:	97 f9       	bld	r25, 7
    2a0a:	08 95       	ret

00002a0c <__fp_inf>:
    2a0c:	97 f9       	bld	r25, 7
    2a0e:	9f 67       	ori	r25, 0x7F	; 127
    2a10:	80 e8       	ldi	r24, 0x80	; 128
    2a12:	70 e0       	ldi	r23, 0x00	; 0
    2a14:	60 e0       	ldi	r22, 0x00	; 0
    2a16:	08 95       	ret

00002a18 <__fp_nan>:
    2a18:	9f ef       	ldi	r25, 0xFF	; 255
    2a1a:	80 ec       	ldi	r24, 0xC0	; 192
    2a1c:	08 95       	ret

00002a1e <__fp_pscA>:
    2a1e:	00 24       	eor	r0, r0
    2a20:	0a 94       	dec	r0
    2a22:	16 16       	cp	r1, r22
    2a24:	17 06       	cpc	r1, r23
    2a26:	18 06       	cpc	r1, r24
    2a28:	09 06       	cpc	r0, r25
    2a2a:	08 95       	ret

00002a2c <__fp_pscB>:
    2a2c:	00 24       	eor	r0, r0
    2a2e:	0a 94       	dec	r0
    2a30:	12 16       	cp	r1, r18
    2a32:	13 06       	cpc	r1, r19
    2a34:	14 06       	cpc	r1, r20
    2a36:	05 06       	cpc	r0, r21
    2a38:	08 95       	ret

00002a3a <__fp_round>:
    2a3a:	09 2e       	mov	r0, r25
    2a3c:	03 94       	inc	r0
    2a3e:	00 0c       	add	r0, r0
    2a40:	11 f4       	brne	.+4      	; 0x2a46 <__fp_round+0xc>
    2a42:	88 23       	and	r24, r24
    2a44:	52 f0       	brmi	.+20     	; 0x2a5a <__fp_round+0x20>
    2a46:	bb 0f       	add	r27, r27
    2a48:	40 f4       	brcc	.+16     	; 0x2a5a <__fp_round+0x20>
    2a4a:	bf 2b       	or	r27, r31
    2a4c:	11 f4       	brne	.+4      	; 0x2a52 <__fp_round+0x18>
    2a4e:	60 ff       	sbrs	r22, 0
    2a50:	04 c0       	rjmp	.+8      	; 0x2a5a <__fp_round+0x20>
    2a52:	6f 5f       	subi	r22, 0xFF	; 255
    2a54:	7f 4f       	sbci	r23, 0xFF	; 255
    2a56:	8f 4f       	sbci	r24, 0xFF	; 255
    2a58:	9f 4f       	sbci	r25, 0xFF	; 255
    2a5a:	08 95       	ret

00002a5c <__fp_split3>:
    2a5c:	57 fd       	sbrc	r21, 7
    2a5e:	90 58       	subi	r25, 0x80	; 128
    2a60:	44 0f       	add	r20, r20
    2a62:	55 1f       	adc	r21, r21
    2a64:	59 f0       	breq	.+22     	; 0x2a7c <__fp_splitA+0x10>
    2a66:	5f 3f       	cpi	r21, 0xFF	; 255
    2a68:	71 f0       	breq	.+28     	; 0x2a86 <__fp_splitA+0x1a>
    2a6a:	47 95       	ror	r20

00002a6c <__fp_splitA>:
    2a6c:	88 0f       	add	r24, r24
    2a6e:	97 fb       	bst	r25, 7
    2a70:	99 1f       	adc	r25, r25
    2a72:	61 f0       	breq	.+24     	; 0x2a8c <__fp_splitA+0x20>
    2a74:	9f 3f       	cpi	r25, 0xFF	; 255
    2a76:	79 f0       	breq	.+30     	; 0x2a96 <__fp_splitA+0x2a>
    2a78:	87 95       	ror	r24
    2a7a:	08 95       	ret
    2a7c:	12 16       	cp	r1, r18
    2a7e:	13 06       	cpc	r1, r19
    2a80:	14 06       	cpc	r1, r20
    2a82:	55 1f       	adc	r21, r21
    2a84:	f2 cf       	rjmp	.-28     	; 0x2a6a <__fp_split3+0xe>
    2a86:	46 95       	lsr	r20
    2a88:	f1 df       	rcall	.-30     	; 0x2a6c <__fp_splitA>
    2a8a:	08 c0       	rjmp	.+16     	; 0x2a9c <__fp_splitA+0x30>
    2a8c:	16 16       	cp	r1, r22
    2a8e:	17 06       	cpc	r1, r23
    2a90:	18 06       	cpc	r1, r24
    2a92:	99 1f       	adc	r25, r25
    2a94:	f1 cf       	rjmp	.-30     	; 0x2a78 <__fp_splitA+0xc>
    2a96:	86 95       	lsr	r24
    2a98:	71 05       	cpc	r23, r1
    2a9a:	61 05       	cpc	r22, r1
    2a9c:	08 94       	sec
    2a9e:	08 95       	ret

00002aa0 <__fp_zero>:
    2aa0:	e8 94       	clt

00002aa2 <__fp_szero>:
    2aa2:	bb 27       	eor	r27, r27
    2aa4:	66 27       	eor	r22, r22
    2aa6:	77 27       	eor	r23, r23
    2aa8:	cb 01       	movw	r24, r22
    2aaa:	97 f9       	bld	r25, 7
    2aac:	08 95       	ret

00002aae <__mulsf3>:
    2aae:	0b d0       	rcall	.+22     	; 0x2ac6 <__mulsf3x>
    2ab0:	c4 cf       	rjmp	.-120    	; 0x2a3a <__fp_round>
    2ab2:	b5 df       	rcall	.-150    	; 0x2a1e <__fp_pscA>
    2ab4:	28 f0       	brcs	.+10     	; 0x2ac0 <__mulsf3+0x12>
    2ab6:	ba df       	rcall	.-140    	; 0x2a2c <__fp_pscB>
    2ab8:	18 f0       	brcs	.+6      	; 0x2ac0 <__mulsf3+0x12>
    2aba:	95 23       	and	r25, r21
    2abc:	09 f0       	breq	.+2      	; 0x2ac0 <__mulsf3+0x12>
    2abe:	a6 cf       	rjmp	.-180    	; 0x2a0c <__fp_inf>
    2ac0:	ab cf       	rjmp	.-170    	; 0x2a18 <__fp_nan>
    2ac2:	11 24       	eor	r1, r1
    2ac4:	ee cf       	rjmp	.-36     	; 0x2aa2 <__fp_szero>

00002ac6 <__mulsf3x>:
    2ac6:	ca df       	rcall	.-108    	; 0x2a5c <__fp_split3>
    2ac8:	a0 f3       	brcs	.-24     	; 0x2ab2 <__mulsf3+0x4>

00002aca <__mulsf3_pse>:
    2aca:	95 9f       	mul	r25, r21
    2acc:	d1 f3       	breq	.-12     	; 0x2ac2 <__mulsf3+0x14>
    2ace:	95 0f       	add	r25, r21
    2ad0:	50 e0       	ldi	r21, 0x00	; 0
    2ad2:	55 1f       	adc	r21, r21
    2ad4:	62 9f       	mul	r22, r18
    2ad6:	f0 01       	movw	r30, r0
    2ad8:	72 9f       	mul	r23, r18
    2ada:	bb 27       	eor	r27, r27
    2adc:	f0 0d       	add	r31, r0
    2ade:	b1 1d       	adc	r27, r1
    2ae0:	63 9f       	mul	r22, r19
    2ae2:	aa 27       	eor	r26, r26
    2ae4:	f0 0d       	add	r31, r0
    2ae6:	b1 1d       	adc	r27, r1
    2ae8:	aa 1f       	adc	r26, r26
    2aea:	64 9f       	mul	r22, r20
    2aec:	66 27       	eor	r22, r22
    2aee:	b0 0d       	add	r27, r0
    2af0:	a1 1d       	adc	r26, r1
    2af2:	66 1f       	adc	r22, r22
    2af4:	82 9f       	mul	r24, r18
    2af6:	22 27       	eor	r18, r18
    2af8:	b0 0d       	add	r27, r0
    2afa:	a1 1d       	adc	r26, r1
    2afc:	62 1f       	adc	r22, r18
    2afe:	73 9f       	mul	r23, r19
    2b00:	b0 0d       	add	r27, r0
    2b02:	a1 1d       	adc	r26, r1
    2b04:	62 1f       	adc	r22, r18
    2b06:	83 9f       	mul	r24, r19
    2b08:	a0 0d       	add	r26, r0
    2b0a:	61 1d       	adc	r22, r1
    2b0c:	22 1f       	adc	r18, r18
    2b0e:	74 9f       	mul	r23, r20
    2b10:	33 27       	eor	r19, r19
    2b12:	a0 0d       	add	r26, r0
    2b14:	61 1d       	adc	r22, r1
    2b16:	23 1f       	adc	r18, r19
    2b18:	84 9f       	mul	r24, r20
    2b1a:	60 0d       	add	r22, r0
    2b1c:	21 1d       	adc	r18, r1
    2b1e:	82 2f       	mov	r24, r18
    2b20:	76 2f       	mov	r23, r22
    2b22:	6a 2f       	mov	r22, r26
    2b24:	11 24       	eor	r1, r1
    2b26:	9f 57       	subi	r25, 0x7F	; 127
    2b28:	50 40       	sbci	r21, 0x00	; 0
    2b2a:	8a f0       	brmi	.+34     	; 0x2b4e <__mulsf3_pse+0x84>
    2b2c:	e1 f0       	breq	.+56     	; 0x2b66 <__mulsf3_pse+0x9c>
    2b2e:	88 23       	and	r24, r24
    2b30:	4a f0       	brmi	.+18     	; 0x2b44 <__mulsf3_pse+0x7a>
    2b32:	ee 0f       	add	r30, r30
    2b34:	ff 1f       	adc	r31, r31
    2b36:	bb 1f       	adc	r27, r27
    2b38:	66 1f       	adc	r22, r22
    2b3a:	77 1f       	adc	r23, r23
    2b3c:	88 1f       	adc	r24, r24
    2b3e:	91 50       	subi	r25, 0x01	; 1
    2b40:	50 40       	sbci	r21, 0x00	; 0
    2b42:	a9 f7       	brne	.-22     	; 0x2b2e <__mulsf3_pse+0x64>
    2b44:	9e 3f       	cpi	r25, 0xFE	; 254
    2b46:	51 05       	cpc	r21, r1
    2b48:	70 f0       	brcs	.+28     	; 0x2b66 <__mulsf3_pse+0x9c>
    2b4a:	60 cf       	rjmp	.-320    	; 0x2a0c <__fp_inf>
    2b4c:	aa cf       	rjmp	.-172    	; 0x2aa2 <__fp_szero>
    2b4e:	5f 3f       	cpi	r21, 0xFF	; 255
    2b50:	ec f3       	brlt	.-6      	; 0x2b4c <__mulsf3_pse+0x82>
    2b52:	98 3e       	cpi	r25, 0xE8	; 232
    2b54:	dc f3       	brlt	.-10     	; 0x2b4c <__mulsf3_pse+0x82>
    2b56:	86 95       	lsr	r24
    2b58:	77 95       	ror	r23
    2b5a:	67 95       	ror	r22
    2b5c:	b7 95       	ror	r27
    2b5e:	f7 95       	ror	r31
    2b60:	e7 95       	ror	r30
    2b62:	9f 5f       	subi	r25, 0xFF	; 255
    2b64:	c1 f7       	brne	.-16     	; 0x2b56 <__mulsf3_pse+0x8c>
    2b66:	fe 2b       	or	r31, r30
    2b68:	88 0f       	add	r24, r24
    2b6a:	91 1d       	adc	r25, r1
    2b6c:	96 95       	lsr	r25
    2b6e:	87 95       	ror	r24
    2b70:	97 f9       	bld	r25, 7
    2b72:	08 95       	ret

00002b74 <__udivmodqi4>:
    2b74:	99 1b       	sub	r25, r25
    2b76:	79 e0       	ldi	r23, 0x09	; 9
    2b78:	04 c0       	rjmp	.+8      	; 0x2b82 <__udivmodqi4_ep>

00002b7a <__udivmodqi4_loop>:
    2b7a:	99 1f       	adc	r25, r25
    2b7c:	96 17       	cp	r25, r22
    2b7e:	08 f0       	brcs	.+2      	; 0x2b82 <__udivmodqi4_ep>
    2b80:	96 1b       	sub	r25, r22

00002b82 <__udivmodqi4_ep>:
    2b82:	88 1f       	adc	r24, r24
    2b84:	7a 95       	dec	r23
    2b86:	c9 f7       	brne	.-14     	; 0x2b7a <__udivmodqi4_loop>
    2b88:	80 95       	com	r24
    2b8a:	08 95       	ret

00002b8c <__udivmodhi4>:
    2b8c:	aa 1b       	sub	r26, r26
    2b8e:	bb 1b       	sub	r27, r27
    2b90:	51 e1       	ldi	r21, 0x11	; 17
    2b92:	07 c0       	rjmp	.+14     	; 0x2ba2 <__udivmodhi4_ep>

00002b94 <__udivmodhi4_loop>:
    2b94:	aa 1f       	adc	r26, r26
    2b96:	bb 1f       	adc	r27, r27
    2b98:	a6 17       	cp	r26, r22
    2b9a:	b7 07       	cpc	r27, r23
    2b9c:	10 f0       	brcs	.+4      	; 0x2ba2 <__udivmodhi4_ep>
    2b9e:	a6 1b       	sub	r26, r22
    2ba0:	b7 0b       	sbc	r27, r23

00002ba2 <__udivmodhi4_ep>:
    2ba2:	88 1f       	adc	r24, r24
    2ba4:	99 1f       	adc	r25, r25
    2ba6:	5a 95       	dec	r21
    2ba8:	a9 f7       	brne	.-22     	; 0x2b94 <__udivmodhi4_loop>
    2baa:	80 95       	com	r24
    2bac:	90 95       	com	r25
    2bae:	bc 01       	movw	r22, r24
    2bb0:	cd 01       	movw	r24, r26
    2bb2:	08 95       	ret

00002bb4 <itoa>:
    2bb4:	fb 01       	movw	r30, r22
    2bb6:	9f 01       	movw	r18, r30
    2bb8:	e8 94       	clt
    2bba:	42 30       	cpi	r20, 0x02	; 2
    2bbc:	c4 f0       	brlt	.+48     	; 0x2bee <itoa+0x3a>
    2bbe:	45 32       	cpi	r20, 0x25	; 37
    2bc0:	b4 f4       	brge	.+44     	; 0x2bee <itoa+0x3a>
    2bc2:	4a 30       	cpi	r20, 0x0A	; 10
    2bc4:	29 f4       	brne	.+10     	; 0x2bd0 <itoa+0x1c>
    2bc6:	97 fb       	bst	r25, 7
    2bc8:	1e f4       	brtc	.+6      	; 0x2bd0 <itoa+0x1c>
    2bca:	90 95       	com	r25
    2bcc:	81 95       	neg	r24
    2bce:	9f 4f       	sbci	r25, 0xFF	; 255
    2bd0:	64 2f       	mov	r22, r20
    2bd2:	77 27       	eor	r23, r23
    2bd4:	0e 94 c6 15 	call	0x2b8c	; 0x2b8c <__udivmodhi4>
    2bd8:	80 5d       	subi	r24, 0xD0	; 208
    2bda:	8a 33       	cpi	r24, 0x3A	; 58
    2bdc:	0c f0       	brlt	.+2      	; 0x2be0 <itoa+0x2c>
    2bde:	89 5d       	subi	r24, 0xD9	; 217
    2be0:	81 93       	st	Z+, r24
    2be2:	cb 01       	movw	r24, r22
    2be4:	00 97       	sbiw	r24, 0x00	; 0
    2be6:	a1 f7       	brne	.-24     	; 0x2bd0 <itoa+0x1c>
    2be8:	16 f4       	brtc	.+4      	; 0x2bee <itoa+0x3a>
    2bea:	5d e2       	ldi	r21, 0x2D	; 45
    2bec:	51 93       	st	Z+, r21
    2bee:	10 82       	st	Z, r1
    2bf0:	c9 01       	movw	r24, r18
    2bf2:	0c 94 fb 15 	jmp	0x2bf6	; 0x2bf6 <strrev>

00002bf6 <strrev>:
    2bf6:	dc 01       	movw	r26, r24
    2bf8:	fc 01       	movw	r30, r24
    2bfa:	67 2f       	mov	r22, r23
    2bfc:	71 91       	ld	r23, Z+
    2bfe:	77 23       	and	r23, r23
    2c00:	e1 f7       	brne	.-8      	; 0x2bfa <strrev+0x4>
    2c02:	32 97       	sbiw	r30, 0x02	; 2
    2c04:	04 c0       	rjmp	.+8      	; 0x2c0e <strrev+0x18>
    2c06:	7c 91       	ld	r23, X
    2c08:	6d 93       	st	X+, r22
    2c0a:	70 83       	st	Z, r23
    2c0c:	62 91       	ld	r22, -Z
    2c0e:	ae 17       	cp	r26, r30
    2c10:	bf 07       	cpc	r27, r31
    2c12:	c8 f3       	brcs	.-14     	; 0x2c06 <strrev+0x10>
    2c14:	08 95       	ret

00002c16 <_exit>:
    2c16:	f8 94       	cli

00002c18 <__stop_program>:
    2c18:	ff cf       	rjmp	.-2      	; 0x2c18 <__stop_program>
